	.file	1 "atomics.cpp"
	.section .mdebug.abi32
	.previous
	.nan	legacy
	.module	softfloat
	.module	oddspreg
	.abicalls
	.option	pic0
	.text
	.section	.text._ZN16IncrementRegularD2Ev,"axG",@progbits,_ZN16IncrementRegularD5Ev,comdat
	.align	2
	.weak	_ZN16IncrementRegularD2Ev
$LFB4825 = .
	.cfi_startproc
	.set	nomips16
	.set	nomicromips
	.ent	_ZN16IncrementRegularD2Ev
	.type	_ZN16IncrementRegularD2Ev, @function
_ZN16IncrementRegularD2Ev:
	.frame	$sp,0,$31		# vars= 0, regs= 0/0, args= 0, gp= 0
	.mask	0x00000000,0
	.fmask	0x00000000,0
	.set	noreorder
	.set	nomacro
	jr	$31
	nop

	.set	macro
	.set	reorder
	.end	_ZN16IncrementRegularD2Ev
	.cfi_endproc
$LFE4825:
	.size	_ZN16IncrementRegularD2Ev, .-_ZN16IncrementRegularD2Ev
	.weak	_ZN16IncrementRegularD1Ev
	_ZN16IncrementRegularD1Ev = _ZN16IncrementRegularD2Ev
	.section	.text._ZN16IncrementRelaxedD2Ev,"axG",@progbits,_ZN16IncrementRelaxedD5Ev,comdat
	.align	2
	.weak	_ZN16IncrementRelaxedD2Ev
$LFB4833 = .
	.cfi_startproc
	.set	nomips16
	.set	nomicromips
	.ent	_ZN16IncrementRelaxedD2Ev
	.type	_ZN16IncrementRelaxedD2Ev, @function
_ZN16IncrementRelaxedD2Ev:
	.frame	$sp,0,$31		# vars= 0, regs= 0/0, args= 0, gp= 0
	.mask	0x00000000,0
	.fmask	0x00000000,0
	.set	noreorder
	.set	nomacro
	jr	$31
	nop

	.set	macro
	.set	reorder
	.end	_ZN16IncrementRelaxedD2Ev
	.cfi_endproc
$LFE4833:
	.size	_ZN16IncrementRelaxedD2Ev, .-_ZN16IncrementRelaxedD2Ev
	.weak	_ZN16IncrementRelaxedD1Ev
	_ZN16IncrementRelaxedD1Ev = _ZN16IncrementRelaxedD2Ev
	.section	.text._ZN15IncrementSeqCstD2Ev,"axG",@progbits,_ZN15IncrementSeqCstD5Ev,comdat
	.align	2
	.weak	_ZN15IncrementSeqCstD2Ev
$LFB4841 = .
	.cfi_startproc
	.set	nomips16
	.set	nomicromips
	.ent	_ZN15IncrementSeqCstD2Ev
	.type	_ZN15IncrementSeqCstD2Ev, @function
_ZN15IncrementSeqCstD2Ev:
	.frame	$sp,0,$31		# vars= 0, regs= 0/0, args= 0, gp= 0
	.mask	0x00000000,0
	.fmask	0x00000000,0
	.set	noreorder
	.set	nomacro
	jr	$31
	nop

	.set	macro
	.set	reorder
	.end	_ZN15IncrementSeqCstD2Ev
	.cfi_endproc
$LFE4841:
	.size	_ZN15IncrementSeqCstD2Ev, .-_ZN15IncrementSeqCstD2Ev
	.weak	_ZN15IncrementSeqCstD1Ev
	_ZN15IncrementSeqCstD1Ev = _ZN15IncrementSeqCstD2Ev
	.section	.text._ZN21SpinUseRelaxedRegularD2Ev,"axG",@progbits,_ZN21SpinUseRelaxedRegularD5Ev,comdat
	.align	2
	.weak	_ZN21SpinUseRelaxedRegularD2Ev
$LFB4849 = .
	.cfi_startproc
	.set	nomips16
	.set	nomicromips
	.ent	_ZN21SpinUseRelaxedRegularD2Ev
	.type	_ZN21SpinUseRelaxedRegularD2Ev, @function
_ZN21SpinUseRelaxedRegularD2Ev:
	.frame	$sp,0,$31		# vars= 0, regs= 0/0, args= 0, gp= 0
	.mask	0x00000000,0
	.fmask	0x00000000,0
	.set	noreorder
	.set	nomacro
	jr	$31
	nop

	.set	macro
	.set	reorder
	.end	_ZN21SpinUseRelaxedRegularD2Ev
	.cfi_endproc
$LFE4849:
	.size	_ZN21SpinUseRelaxedRegularD2Ev, .-_ZN21SpinUseRelaxedRegularD2Ev
	.weak	_ZN21SpinUseRelaxedRegularD1Ev
	_ZN21SpinUseRelaxedRegularD1Ev = _ZN21SpinUseRelaxedRegularD2Ev
	.section	.text._ZN14SpinUseRelaxedD2Ev,"axG",@progbits,_ZN14SpinUseRelaxedD5Ev,comdat
	.align	2
	.weak	_ZN14SpinUseRelaxedD2Ev
$LFB4857 = .
	.cfi_startproc
	.set	nomips16
	.set	nomicromips
	.ent	_ZN14SpinUseRelaxedD2Ev
	.type	_ZN14SpinUseRelaxedD2Ev, @function
_ZN14SpinUseRelaxedD2Ev:
	.frame	$sp,0,$31		# vars= 0, regs= 0/0, args= 0, gp= 0
	.mask	0x00000000,0
	.fmask	0x00000000,0
	.set	noreorder
	.set	nomacro
	jr	$31
	nop

	.set	macro
	.set	reorder
	.end	_ZN14SpinUseRelaxedD2Ev
	.cfi_endproc
$LFE4857:
	.size	_ZN14SpinUseRelaxedD2Ev, .-_ZN14SpinUseRelaxedD2Ev
	.weak	_ZN14SpinUseRelaxedD1Ev
	_ZN14SpinUseRelaxedD1Ev = _ZN14SpinUseRelaxedD2Ev
	.section	.text._ZN13SpinUseAcqRelD2Ev,"axG",@progbits,_ZN13SpinUseAcqRelD5Ev,comdat
	.align	2
	.weak	_ZN13SpinUseAcqRelD2Ev
$LFB4865 = .
	.cfi_startproc
	.set	nomips16
	.set	nomicromips
	.ent	_ZN13SpinUseAcqRelD2Ev
	.type	_ZN13SpinUseAcqRelD2Ev, @function
_ZN13SpinUseAcqRelD2Ev:
	.frame	$sp,0,$31		# vars= 0, regs= 0/0, args= 0, gp= 0
	.mask	0x00000000,0
	.fmask	0x00000000,0
	.set	noreorder
	.set	nomacro
	jr	$31
	nop

	.set	macro
	.set	reorder
	.end	_ZN13SpinUseAcqRelD2Ev
	.cfi_endproc
$LFE4865:
	.size	_ZN13SpinUseAcqRelD2Ev, .-_ZN13SpinUseAcqRelD2Ev
	.weak	_ZN13SpinUseAcqRelD1Ev
	_ZN13SpinUseAcqRelD1Ev = _ZN13SpinUseAcqRelD2Ev
	.section	.text._ZN20SpinUseAcqRelRegularD2Ev,"axG",@progbits,_ZN20SpinUseAcqRelRegularD5Ev,comdat
	.align	2
	.weak	_ZN20SpinUseAcqRelRegularD2Ev
$LFB4873 = .
	.cfi_startproc
	.set	nomips16
	.set	nomicromips
	.ent	_ZN20SpinUseAcqRelRegularD2Ev
	.type	_ZN20SpinUseAcqRelRegularD2Ev, @function
_ZN20SpinUseAcqRelRegularD2Ev:
	.frame	$sp,0,$31		# vars= 0, regs= 0/0, args= 0, gp= 0
	.mask	0x00000000,0
	.fmask	0x00000000,0
	.set	noreorder
	.set	nomacro
	jr	$31
	nop

	.set	macro
	.set	reorder
	.end	_ZN20SpinUseAcqRelRegularD2Ev
	.cfi_endproc
$LFE4873:
	.size	_ZN20SpinUseAcqRelRegularD2Ev, .-_ZN20SpinUseAcqRelRegularD2Ev
	.weak	_ZN20SpinUseAcqRelRegularD1Ev
	_ZN20SpinUseAcqRelRegularD1Ev = _ZN20SpinUseAcqRelRegularD2Ev
	.section	.text._ZN13SpinUseSeqCstD2Ev,"axG",@progbits,_ZN13SpinUseSeqCstD5Ev,comdat
	.align	2
	.weak	_ZN13SpinUseSeqCstD2Ev
$LFB4881 = .
	.cfi_startproc
	.set	nomips16
	.set	nomicromips
	.ent	_ZN13SpinUseSeqCstD2Ev
	.type	_ZN13SpinUseSeqCstD2Ev, @function
_ZN13SpinUseSeqCstD2Ev:
	.frame	$sp,0,$31		# vars= 0, regs= 0/0, args= 0, gp= 0
	.mask	0x00000000,0
	.fmask	0x00000000,0
	.set	noreorder
	.set	nomacro
	jr	$31
	nop

	.set	macro
	.set	reorder
	.end	_ZN13SpinUseSeqCstD2Ev
	.cfi_endproc
$LFE4881:
	.size	_ZN13SpinUseSeqCstD2Ev, .-_ZN13SpinUseSeqCstD2Ev
	.weak	_ZN13SpinUseSeqCstD1Ev
	_ZN13SpinUseSeqCstD1Ev = _ZN13SpinUseSeqCstD2Ev
	.section	.text._ZN13SeqCstAcqRel2D2Ev,"axG",@progbits,_ZN13SeqCstAcqRel2D5Ev,comdat
	.align	2
	.weak	_ZN13SeqCstAcqRel2D2Ev
$LFB4889 = .
	.cfi_startproc
	.set	nomips16
	.set	nomicromips
	.ent	_ZN13SeqCstAcqRel2D2Ev
	.type	_ZN13SeqCstAcqRel2D2Ev, @function
_ZN13SeqCstAcqRel2D2Ev:
	.frame	$sp,0,$31		# vars= 0, regs= 0/0, args= 0, gp= 0
	.mask	0x00000000,0
	.fmask	0x00000000,0
	.set	noreorder
	.set	nomacro
	jr	$31
	nop

	.set	macro
	.set	reorder
	.end	_ZN13SeqCstAcqRel2D2Ev
	.cfi_endproc
$LFE4889:
	.size	_ZN13SeqCstAcqRel2D2Ev, .-_ZN13SeqCstAcqRel2D2Ev
	.weak	_ZN13SeqCstAcqRel2D1Ev
	_ZN13SeqCstAcqRel2D1Ev = _ZN13SeqCstAcqRel2D2Ev
	.section	.text._ZN7SeqCst2D2Ev,"axG",@progbits,_ZN7SeqCst2D5Ev,comdat
	.align	2
	.weak	_ZN7SeqCst2D2Ev
$LFB4897 = .
	.cfi_startproc
	.set	nomips16
	.set	nomicromips
	.ent	_ZN7SeqCst2D2Ev
	.type	_ZN7SeqCst2D2Ev, @function
_ZN7SeqCst2D2Ev:
	.frame	$sp,0,$31		# vars= 0, regs= 0/0, args= 0, gp= 0
	.mask	0x00000000,0
	.fmask	0x00000000,0
	.set	noreorder
	.set	nomacro
	jr	$31
	nop

	.set	macro
	.set	reorder
	.end	_ZN7SeqCst2D2Ev
	.cfi_endproc
$LFE4897:
	.size	_ZN7SeqCst2D2Ev, .-_ZN7SeqCst2D2Ev
	.weak	_ZN7SeqCst2D1Ev
	_ZN7SeqCst2D1Ev = _ZN7SeqCst2D2Ev
	.section	.text._ZN13SeqCstAcqRel4D2Ev,"axG",@progbits,_ZN13SeqCstAcqRel4D5Ev,comdat
	.align	2
	.weak	_ZN13SeqCstAcqRel4D2Ev
$LFB4905 = .
	.cfi_startproc
	.set	nomips16
	.set	nomicromips
	.ent	_ZN13SeqCstAcqRel4D2Ev
	.type	_ZN13SeqCstAcqRel4D2Ev, @function
_ZN13SeqCstAcqRel4D2Ev:
	.frame	$sp,0,$31		# vars= 0, regs= 0/0, args= 0, gp= 0
	.mask	0x00000000,0
	.fmask	0x00000000,0
	.set	noreorder
	.set	nomacro
	jr	$31
	nop

	.set	macro
	.set	reorder
	.end	_ZN13SeqCstAcqRel4D2Ev
	.cfi_endproc
$LFE4905:
	.size	_ZN13SeqCstAcqRel4D2Ev, .-_ZN13SeqCstAcqRel4D2Ev
	.weak	_ZN13SeqCstAcqRel4D1Ev
	_ZN13SeqCstAcqRel4D1Ev = _ZN13SeqCstAcqRel4D2Ev
	.section	.text._ZN7SeqCst4D2Ev,"axG",@progbits,_ZN7SeqCst4D5Ev,comdat
	.align	2
	.weak	_ZN7SeqCst4D2Ev
$LFB4913 = .
	.cfi_startproc
	.set	nomips16
	.set	nomicromips
	.ent	_ZN7SeqCst4D2Ev
	.type	_ZN7SeqCst4D2Ev, @function
_ZN7SeqCst4D2Ev:
	.frame	$sp,0,$31		# vars= 0, regs= 0/0, args= 0, gp= 0
	.mask	0x00000000,0
	.fmask	0x00000000,0
	.set	noreorder
	.set	nomacro
	jr	$31
	nop

	.set	macro
	.set	reorder
	.end	_ZN7SeqCst4D2Ev
	.cfi_endproc
$LFE4913:
	.size	_ZN7SeqCst4D2Ev, .-_ZN7SeqCst4D2Ev
	.weak	_ZN7SeqCst4D1Ev
	_ZN7SeqCst4D1Ev = _ZN7SeqCst4D2Ev
	.section	.text._ZN16IncrementRegular5checkEv,"axG",@progbits,_ZN16IncrementRegular5checkEv,comdat
	.align	2
	.weak	_ZN16IncrementRegular5checkEv
$LFB4366 = .
	.cfi_startproc
	.set	nomips16
	.set	nomicromips
	.ent	_ZN16IncrementRegular5checkEv
	.type	_ZN16IncrementRegular5checkEv, @function
_ZN16IncrementRegular5checkEv:
	.frame	$sp,0,$31		# vars= 0, regs= 0/0, args= 0, gp= 0
	.mask	0x00000000,0
	.fmask	0x00000000,0
	.set	noreorder
	.set	nomacro
	lw	$3,20($4)
	li	$2,2			# 0x2
	bne	$3,$2,$L16
	li	$2,1			# 0x1

	jr	$31
	sw	$0,20($4)

$L16:
	sync
	sb	$2,4($4)
	sync
	jr	$31
	sw	$0,20($4)

	.set	macro
	.set	reorder
	.end	_ZN16IncrementRegular5checkEv
	.cfi_endproc
$LFE4366:
	.size	_ZN16IncrementRegular5checkEv, .-_ZN16IncrementRegular5checkEv
	.section	.text._ZN16IncrementRegularD0Ev,"axG",@progbits,_ZN16IncrementRegularD5Ev,comdat
	.align	2
	.weak	_ZN16IncrementRegularD0Ev
$LFB4827 = .
	.cfi_startproc
	.set	nomips16
	.set	nomicromips
	.ent	_ZN16IncrementRegularD0Ev
	.type	_ZN16IncrementRegularD0Ev, @function
_ZN16IncrementRegularD0Ev:
	.frame	$sp,0,$31		# vars= 0, regs= 0/0, args= 0, gp= 0
	.mask	0x00000000,0
	.fmask	0x00000000,0
	.set	noreorder
	.set	nomacro
	j	_ZdlPvj
	li	$5,24			# 0x18

	.set	macro
	.set	reorder
	.end	_ZN16IncrementRegularD0Ev
	.cfi_endproc
$LFE4827:
	.size	_ZN16IncrementRegularD0Ev, .-_ZN16IncrementRegularD0Ev
	.section	.text._ZN16IncrementRelaxedD0Ev,"axG",@progbits,_ZN16IncrementRelaxedD5Ev,comdat
	.align	2
	.weak	_ZN16IncrementRelaxedD0Ev
$LFB4835 = .
	.cfi_startproc
	.set	nomips16
	.set	nomicromips
	.ent	_ZN16IncrementRelaxedD0Ev
	.type	_ZN16IncrementRelaxedD0Ev, @function
_ZN16IncrementRelaxedD0Ev:
	.frame	$sp,0,$31		# vars= 0, regs= 0/0, args= 0, gp= 0
	.mask	0x00000000,0
	.fmask	0x00000000,0
	.set	noreorder
	.set	nomacro
	j	_ZdlPvj
	li	$5,24			# 0x18

	.set	macro
	.set	reorder
	.end	_ZN16IncrementRelaxedD0Ev
	.cfi_endproc
$LFE4835:
	.size	_ZN16IncrementRelaxedD0Ev, .-_ZN16IncrementRelaxedD0Ev
	.section	.text._ZN15IncrementSeqCstD0Ev,"axG",@progbits,_ZN15IncrementSeqCstD5Ev,comdat
	.align	2
	.weak	_ZN15IncrementSeqCstD0Ev
$LFB4843 = .
	.cfi_startproc
	.set	nomips16
	.set	nomicromips
	.ent	_ZN15IncrementSeqCstD0Ev
	.type	_ZN15IncrementSeqCstD0Ev, @function
_ZN15IncrementSeqCstD0Ev:
	.frame	$sp,0,$31		# vars= 0, regs= 0/0, args= 0, gp= 0
	.mask	0x00000000,0
	.fmask	0x00000000,0
	.set	noreorder
	.set	nomacro
	j	_ZdlPvj
	li	$5,24			# 0x18

	.set	macro
	.set	reorder
	.end	_ZN15IncrementSeqCstD0Ev
	.cfi_endproc
$LFE4843:
	.size	_ZN15IncrementSeqCstD0Ev, .-_ZN15IncrementSeqCstD0Ev
	.section	.text._ZN21SpinUseRelaxedRegularD0Ev,"axG",@progbits,_ZN21SpinUseRelaxedRegularD5Ev,comdat
	.align	2
	.weak	_ZN21SpinUseRelaxedRegularD0Ev
$LFB4851 = .
	.cfi_startproc
	.set	nomips16
	.set	nomicromips
	.ent	_ZN21SpinUseRelaxedRegularD0Ev
	.type	_ZN21SpinUseRelaxedRegularD0Ev, @function
_ZN21SpinUseRelaxedRegularD0Ev:
	.frame	$sp,0,$31		# vars= 0, regs= 0/0, args= 0, gp= 0
	.mask	0x00000000,0
	.fmask	0x00000000,0
	.set	noreorder
	.set	nomacro
	j	_ZdlPvj
	li	$5,28			# 0x1c

	.set	macro
	.set	reorder
	.end	_ZN21SpinUseRelaxedRegularD0Ev
	.cfi_endproc
$LFE4851:
	.size	_ZN21SpinUseRelaxedRegularD0Ev, .-_ZN21SpinUseRelaxedRegularD0Ev
	.section	.text._ZN14SpinUseRelaxedD0Ev,"axG",@progbits,_ZN14SpinUseRelaxedD5Ev,comdat
	.align	2
	.weak	_ZN14SpinUseRelaxedD0Ev
$LFB4859 = .
	.cfi_startproc
	.set	nomips16
	.set	nomicromips
	.ent	_ZN14SpinUseRelaxedD0Ev
	.type	_ZN14SpinUseRelaxedD0Ev, @function
_ZN14SpinUseRelaxedD0Ev:
	.frame	$sp,0,$31		# vars= 0, regs= 0/0, args= 0, gp= 0
	.mask	0x00000000,0
	.fmask	0x00000000,0
	.set	noreorder
	.set	nomacro
	j	_ZdlPvj
	li	$5,28			# 0x1c

	.set	macro
	.set	reorder
	.end	_ZN14SpinUseRelaxedD0Ev
	.cfi_endproc
$LFE4859:
	.size	_ZN14SpinUseRelaxedD0Ev, .-_ZN14SpinUseRelaxedD0Ev
	.section	.text._ZN13SpinUseAcqRelD0Ev,"axG",@progbits,_ZN13SpinUseAcqRelD5Ev,comdat
	.align	2
	.weak	_ZN13SpinUseAcqRelD0Ev
$LFB4867 = .
	.cfi_startproc
	.set	nomips16
	.set	nomicromips
	.ent	_ZN13SpinUseAcqRelD0Ev
	.type	_ZN13SpinUseAcqRelD0Ev, @function
_ZN13SpinUseAcqRelD0Ev:
	.frame	$sp,0,$31		# vars= 0, regs= 0/0, args= 0, gp= 0
	.mask	0x00000000,0
	.fmask	0x00000000,0
	.set	noreorder
	.set	nomacro
	j	_ZdlPvj
	li	$5,28			# 0x1c

	.set	macro
	.set	reorder
	.end	_ZN13SpinUseAcqRelD0Ev
	.cfi_endproc
$LFE4867:
	.size	_ZN13SpinUseAcqRelD0Ev, .-_ZN13SpinUseAcqRelD0Ev
	.section	.text._ZN20SpinUseAcqRelRegularD0Ev,"axG",@progbits,_ZN20SpinUseAcqRelRegularD5Ev,comdat
	.align	2
	.weak	_ZN20SpinUseAcqRelRegularD0Ev
$LFB4875 = .
	.cfi_startproc
	.set	nomips16
	.set	nomicromips
	.ent	_ZN20SpinUseAcqRelRegularD0Ev
	.type	_ZN20SpinUseAcqRelRegularD0Ev, @function
_ZN20SpinUseAcqRelRegularD0Ev:
	.frame	$sp,0,$31		# vars= 0, regs= 0/0, args= 0, gp= 0
	.mask	0x00000000,0
	.fmask	0x00000000,0
	.set	noreorder
	.set	nomacro
	j	_ZdlPvj
	li	$5,28			# 0x1c

	.set	macro
	.set	reorder
	.end	_ZN20SpinUseAcqRelRegularD0Ev
	.cfi_endproc
$LFE4875:
	.size	_ZN20SpinUseAcqRelRegularD0Ev, .-_ZN20SpinUseAcqRelRegularD0Ev
	.section	.text._ZN13SpinUseSeqCstD0Ev,"axG",@progbits,_ZN13SpinUseSeqCstD5Ev,comdat
	.align	2
	.weak	_ZN13SpinUseSeqCstD0Ev
$LFB4883 = .
	.cfi_startproc
	.set	nomips16
	.set	nomicromips
	.ent	_ZN13SpinUseSeqCstD0Ev
	.type	_ZN13SpinUseSeqCstD0Ev, @function
_ZN13SpinUseSeqCstD0Ev:
	.frame	$sp,0,$31		# vars= 0, regs= 0/0, args= 0, gp= 0
	.mask	0x00000000,0
	.fmask	0x00000000,0
	.set	noreorder
	.set	nomacro
	j	_ZdlPvj
	li	$5,28			# 0x1c

	.set	macro
	.set	reorder
	.end	_ZN13SpinUseSeqCstD0Ev
	.cfi_endproc
$LFE4883:
	.size	_ZN13SpinUseSeqCstD0Ev, .-_ZN13SpinUseSeqCstD0Ev
	.section	.text._ZN13SeqCstAcqRel2D0Ev,"axG",@progbits,_ZN13SeqCstAcqRel2D5Ev,comdat
	.align	2
	.weak	_ZN13SeqCstAcqRel2D0Ev
$LFB4891 = .
	.cfi_startproc
	.set	nomips16
	.set	nomicromips
	.ent	_ZN13SeqCstAcqRel2D0Ev
	.type	_ZN13SeqCstAcqRel2D0Ev, @function
_ZN13SeqCstAcqRel2D0Ev:
	.frame	$sp,0,$31		# vars= 0, regs= 0/0, args= 0, gp= 0
	.mask	0x00000000,0
	.fmask	0x00000000,0
	.set	noreorder
	.set	nomacro
	j	_ZdlPvj
	li	$5,36			# 0x24

	.set	macro
	.set	reorder
	.end	_ZN13SeqCstAcqRel2D0Ev
	.cfi_endproc
$LFE4891:
	.size	_ZN13SeqCstAcqRel2D0Ev, .-_ZN13SeqCstAcqRel2D0Ev
	.section	.text._ZN7SeqCst2D0Ev,"axG",@progbits,_ZN7SeqCst2D5Ev,comdat
	.align	2
	.weak	_ZN7SeqCst2D0Ev
$LFB4899 = .
	.cfi_startproc
	.set	nomips16
	.set	nomicromips
	.ent	_ZN7SeqCst2D0Ev
	.type	_ZN7SeqCst2D0Ev, @function
_ZN7SeqCst2D0Ev:
	.frame	$sp,0,$31		# vars= 0, regs= 0/0, args= 0, gp= 0
	.mask	0x00000000,0
	.fmask	0x00000000,0
	.set	noreorder
	.set	nomacro
	j	_ZdlPvj
	li	$5,36			# 0x24

	.set	macro
	.set	reorder
	.end	_ZN7SeqCst2D0Ev
	.cfi_endproc
$LFE4899:
	.size	_ZN7SeqCst2D0Ev, .-_ZN7SeqCst2D0Ev
	.section	.text._ZN13SeqCstAcqRel4D0Ev,"axG",@progbits,_ZN13SeqCstAcqRel4D5Ev,comdat
	.align	2
	.weak	_ZN13SeqCstAcqRel4D0Ev
$LFB4907 = .
	.cfi_startproc
	.set	nomips16
	.set	nomicromips
	.ent	_ZN13SeqCstAcqRel4D0Ev
	.type	_ZN13SeqCstAcqRel4D0Ev, @function
_ZN13SeqCstAcqRel4D0Ev:
	.frame	$sp,0,$31		# vars= 0, regs= 0/0, args= 0, gp= 0
	.mask	0x00000000,0
	.fmask	0x00000000,0
	.set	noreorder
	.set	nomacro
	j	_ZdlPvj
	li	$5,44			# 0x2c

	.set	macro
	.set	reorder
	.end	_ZN13SeqCstAcqRel4D0Ev
	.cfi_endproc
$LFE4907:
	.size	_ZN13SeqCstAcqRel4D0Ev, .-_ZN13SeqCstAcqRel4D0Ev
	.section	.text._ZN7SeqCst4D0Ev,"axG",@progbits,_ZN7SeqCst4D5Ev,comdat
	.align	2
	.weak	_ZN7SeqCst4D0Ev
$LFB4915 = .
	.cfi_startproc
	.set	nomips16
	.set	nomicromips
	.ent	_ZN7SeqCst4D0Ev
	.type	_ZN7SeqCst4D0Ev, @function
_ZN7SeqCst4D0Ev:
	.frame	$sp,0,$31		# vars= 0, regs= 0/0, args= 0, gp= 0
	.mask	0x00000000,0
	.fmask	0x00000000,0
	.set	noreorder
	.set	nomacro
	j	_ZdlPvj
	li	$5,44			# 0x2c

	.set	macro
	.set	reorder
	.end	_ZN7SeqCst4D0Ev
	.cfi_endproc
$LFE4915:
	.size	_ZN7SeqCst4D0Ev, .-_ZN7SeqCst4D0Ev
	.section	.text._ZN13SpinUseSeqCst5checkEv,"axG",@progbits,_ZN13SpinUseSeqCst5checkEv,comdat
	.align	2
	.weak	_ZN13SpinUseSeqCst5checkEv
$LFB4394 = .
	.cfi_startproc
	.set	nomips16
	.set	nomicromips
	.ent	_ZN13SpinUseSeqCst5checkEv
	.type	_ZN13SpinUseSeqCst5checkEv, @function
_ZN13SpinUseSeqCst5checkEv:
	.frame	$sp,0,$31		# vars= 0, regs= 0/0, args= 0, gp= 0
	.mask	0x00000000,0
	.fmask	0x00000000,0
	.set	noreorder
	.set	nomacro
	sync
	sw	$0,20($4)
	sync
	sync
	sw	$0,24($4)
	sync
	jr	$31
	nop

	.set	macro
	.set	reorder
	.end	_ZN13SpinUseSeqCst5checkEv
	.cfi_endproc
$LFE4394:
	.size	_ZN13SpinUseSeqCst5checkEv, .-_ZN13SpinUseSeqCst5checkEv
	.section	.text._ZN20SpinUseAcqRelRegular5checkEv,"axG",@progbits,_ZN20SpinUseAcqRelRegular5checkEv,comdat
	.align	2
	.weak	_ZN20SpinUseAcqRelRegular5checkEv
$LFB4390 = .
	.cfi_startproc
	.set	nomips16
	.set	nomicromips
	.ent	_ZN20SpinUseAcqRelRegular5checkEv
	.type	_ZN20SpinUseAcqRelRegular5checkEv, @function
_ZN20SpinUseAcqRelRegular5checkEv:
	.frame	$sp,0,$31		# vars= 0, regs= 0/0, args= 0, gp= 0
	.mask	0x00000000,0
	.fmask	0x00000000,0
	.set	noreorder
	.set	nomacro
	sync
	sw	$0,20($4)
	sync
	jr	$31
	sw	$0,24($4)

	.set	macro
	.set	reorder
	.end	_ZN20SpinUseAcqRelRegular5checkEv
	.cfi_endproc
$LFE4390:
	.size	_ZN20SpinUseAcqRelRegular5checkEv, .-_ZN20SpinUseAcqRelRegular5checkEv
	.section	.text._ZN13SpinUseAcqRel5checkEv,"axG",@progbits,_ZN13SpinUseAcqRel5checkEv,comdat
	.align	2
	.weak	_ZN13SpinUseAcqRel5checkEv
$LFB4386 = .
	.cfi_startproc
	.set	nomips16
	.set	nomicromips
	.ent	_ZN13SpinUseAcqRel5checkEv
	.type	_ZN13SpinUseAcqRel5checkEv, @function
_ZN13SpinUseAcqRel5checkEv:
	.frame	$sp,0,$31		# vars= 0, regs= 0/0, args= 0, gp= 0
	.mask	0x00000000,0
	.fmask	0x00000000,0
	.set	noreorder
	.set	nomacro
	sync
	sw	$0,20($4)
	sync
	sync
	sw	$0,24($4)
	sync
	jr	$31
	nop

	.set	macro
	.set	reorder
	.end	_ZN13SpinUseAcqRel5checkEv
	.cfi_endproc
$LFE4386:
	.size	_ZN13SpinUseAcqRel5checkEv, .-_ZN13SpinUseAcqRel5checkEv
	.section	.text._ZN14SpinUseRelaxed5checkEv,"axG",@progbits,_ZN14SpinUseRelaxed5checkEv,comdat
	.align	2
	.weak	_ZN14SpinUseRelaxed5checkEv
$LFB4379 = .
	.cfi_startproc
	.set	nomips16
	.set	nomicromips
	.ent	_ZN14SpinUseRelaxed5checkEv
	.type	_ZN14SpinUseRelaxed5checkEv, @function
_ZN14SpinUseRelaxed5checkEv:
	.frame	$sp,0,$31		# vars= 0, regs= 0/0, args= 0, gp= 0
	.mask	0x00000000,0
	.fmask	0x00000000,0
	.set	noreorder
	.set	nomacro
	sync
	sw	$0,20($4)
	sync
	sync
	sw	$0,24($4)
	sync
	jr	$31
	nop

	.set	macro
	.set	reorder
	.end	_ZN14SpinUseRelaxed5checkEv
	.cfi_endproc
$LFE4379:
	.size	_ZN14SpinUseRelaxed5checkEv, .-_ZN14SpinUseRelaxed5checkEv
	.section	.text._ZN21SpinUseRelaxedRegular5checkEv,"axG",@progbits,_ZN21SpinUseRelaxedRegular5checkEv,comdat
	.align	2
	.weak	_ZN21SpinUseRelaxedRegular5checkEv
$LFB4378 = .
	.cfi_startproc
	.set	nomips16
	.set	nomicromips
	.ent	_ZN21SpinUseRelaxedRegular5checkEv
	.type	_ZN21SpinUseRelaxedRegular5checkEv, @function
_ZN21SpinUseRelaxedRegular5checkEv:
	.frame	$sp,0,$31		# vars= 0, regs= 0/0, args= 0, gp= 0
	.mask	0x00000000,0
	.fmask	0x00000000,0
	.set	noreorder
	.set	nomacro
	sync
	sw	$0,20($4)
	sync
	jr	$31
	sw	$0,24($4)

	.set	macro
	.set	reorder
	.end	_ZN21SpinUseRelaxedRegular5checkEv
	.cfi_endproc
$LFE4378:
	.size	_ZN21SpinUseRelaxedRegular5checkEv, .-_ZN21SpinUseRelaxedRegular5checkEv
	.section	.text._ZNSt6thread11_State_implINS_8_InvokerISt5tupleIJZZN8TestCase7runImplIJZN16IncrementRegular3runEvEUlvE_ZNS5_3runEvEUlvE0_EEE10TestResultDpT_ENKUlT_E_clIS6_EEDaSB_EUlvE_EEEEED2Ev,"axG",@progbits,_ZNSt6thread11_State_implINS_8_InvokerISt5tupleIJZZN8TestCase7runImplIJZN16IncrementRegular3runEvEUlvE_ZNS5_3runEvEUlvE0_EEE10TestResultDpT_ENKUlT_E_clIS6_EEDaSB_EUlvE_EEEEED5Ev,comdat
	.align	2
	.weak	_ZNSt6thread11_State_implINS_8_InvokerISt5tupleIJZZN8TestCase7runImplIJZN16IncrementRegular3runEvEUlvE_ZNS5_3runEvEUlvE0_EEE10TestResultDpT_ENKUlT_E_clIS6_EEDaSB_EUlvE_EEEEED2Ev
$LFB7175 = .
	.cfi_startproc
	.set	nomips16
	.set	nomicromips
	.ent	_ZNSt6thread11_State_implINS_8_InvokerISt5tupleIJZZN8TestCase7runImplIJZN16IncrementRegular3runEvEUlvE_ZNS5_3runEvEUlvE0_EEE10TestResultDpT_ENKUlT_E_clIS6_EEDaSB_EUlvE_EEEEED2Ev
	.type	_ZNSt6thread11_State_implINS_8_InvokerISt5tupleIJZZN8TestCase7runImplIJZN16IncrementRegular3runEvEUlvE_ZNS5_3runEvEUlvE0_EEE10TestResultDpT_ENKUlT_E_clIS6_EEDaSB_EUlvE_EEEEED2Ev, @function
_ZNSt6thread11_State_implINS_8_InvokerISt5tupleIJZZN8TestCase7runImplIJZN16IncrementRegular3runEvEUlvE_ZNS5_3runEvEUlvE0_EEE10TestResultDpT_ENKUlT_E_clIS6_EEDaSB_EUlvE_EEEEED2Ev:
	.frame	$sp,0,$31		# vars= 0, regs= 0/0, args= 0, gp= 0
	.mask	0x00000000,0
	.fmask	0x00000000,0
	.set	noreorder
	.set	nomacro
	lui	$2,%hi(_ZTVNSt6thread11_State_implINS_8_InvokerISt5tupleIJZZN8TestCase7runImplIJZN16IncrementRegular3runEvEUlvE_ZNS5_3runEvEUlvE0_EEE10TestResultDpT_ENKUlT_E_clIS6_EEDaSB_EUlvE_EEEEEE+8)
	addiu	$2,$2,%lo(_ZTVNSt6thread11_State_implINS_8_InvokerISt5tupleIJZZN8TestCase7runImplIJZN16IncrementRegular3runEvEUlvE_ZNS5_3runEvEUlvE0_EEE10TestResultDpT_ENKUlT_E_clIS6_EEDaSB_EUlvE_EEEEEE+8)
	j	_ZNSt6thread6_StateD2Ev
	sw	$2,0($4)

	.set	macro
	.set	reorder
	.end	_ZNSt6thread11_State_implINS_8_InvokerISt5tupleIJZZN8TestCase7runImplIJZN16IncrementRegular3runEvEUlvE_ZNS5_3runEvEUlvE0_EEE10TestResultDpT_ENKUlT_E_clIS6_EEDaSB_EUlvE_EEEEED2Ev
	.cfi_endproc
$LFE7175:
	.size	_ZNSt6thread11_State_implINS_8_InvokerISt5tupleIJZZN8TestCase7runImplIJZN16IncrementRegular3runEvEUlvE_ZNS5_3runEvEUlvE0_EEE10TestResultDpT_ENKUlT_E_clIS6_EEDaSB_EUlvE_EEEEED2Ev, .-_ZNSt6thread11_State_implINS_8_InvokerISt5tupleIJZZN8TestCase7runImplIJZN16IncrementRegular3runEvEUlvE_ZNS5_3runEvEUlvE0_EEE10TestResultDpT_ENKUlT_E_clIS6_EEDaSB_EUlvE_EEEEED2Ev
	.weak	_ZNSt6thread11_State_implINS_8_InvokerISt5tupleIJZZN8TestCase7runImplIJZN16IncrementRegular3runEvEUlvE_ZNS5_3runEvEUlvE0_EEE10TestResultDpT_ENKUlT_E_clIS6_EEDaSB_EUlvE_EEEEED1Ev
	_ZNSt6thread11_State_implINS_8_InvokerISt5tupleIJZZN8TestCase7runImplIJZN16IncrementRegular3runEvEUlvE_ZNS5_3runEvEUlvE0_EEE10TestResultDpT_ENKUlT_E_clIS6_EEDaSB_EUlvE_EEEEED1Ev = _ZNSt6thread11_State_implINS_8_InvokerISt5tupleIJZZN8TestCase7runImplIJZN16IncrementRegular3runEvEUlvE_ZNS5_3runEvEUlvE0_EEE10TestResultDpT_ENKUlT_E_clIS6_EEDaSB_EUlvE_EEEEED2Ev
	.section	.text._ZNSt6thread11_State_implINS_8_InvokerISt5tupleIJZZN8TestCase7runImplIJZN16IncrementRegular3runEvEUlvE_ZNS5_3runEvEUlvE0_EEE10TestResultDpT_ENKUlT_E_clIS6_EEDaSB_EUlvE_EEEEED0Ev,"axG",@progbits,_ZNSt6thread11_State_implINS_8_InvokerISt5tupleIJZZN8TestCase7runImplIJZN16IncrementRegular3runEvEUlvE_ZNS5_3runEvEUlvE0_EEE10TestResultDpT_ENKUlT_E_clIS6_EEDaSB_EUlvE_EEEEED5Ev,comdat
	.align	2
	.weak	_ZNSt6thread11_State_implINS_8_InvokerISt5tupleIJZZN8TestCase7runImplIJZN16IncrementRegular3runEvEUlvE_ZNS5_3runEvEUlvE0_EEE10TestResultDpT_ENKUlT_E_clIS6_EEDaSB_EUlvE_EEEEED0Ev
$LFB7177 = .
	.cfi_startproc
	.set	nomips16
	.set	nomicromips
	.ent	_ZNSt6thread11_State_implINS_8_InvokerISt5tupleIJZZN8TestCase7runImplIJZN16IncrementRegular3runEvEUlvE_ZNS5_3runEvEUlvE0_EEE10TestResultDpT_ENKUlT_E_clIS6_EEDaSB_EUlvE_EEEEED0Ev
	.type	_ZNSt6thread11_State_implINS_8_InvokerISt5tupleIJZZN8TestCase7runImplIJZN16IncrementRegular3runEvEUlvE_ZNS5_3runEvEUlvE0_EEE10TestResultDpT_ENKUlT_E_clIS6_EEDaSB_EUlvE_EEEEED0Ev, @function
_ZNSt6thread11_State_implINS_8_InvokerISt5tupleIJZZN8TestCase7runImplIJZN16IncrementRegular3runEvEUlvE_ZNS5_3runEvEUlvE0_EEE10TestResultDpT_ENKUlT_E_clIS6_EEDaSB_EUlvE_EEEEED0Ev:
	.frame	$sp,32,$31		# vars= 0, regs= 2/0, args= 16, gp= 8
	.mask	0x80010000,-4
	.fmask	0x00000000,0
	.set	noreorder
	.set	nomacro
	addiu	$sp,$sp,-32
	.cfi_def_cfa_offset 32
	lui	$2,%hi(_ZTVNSt6thread11_State_implINS_8_InvokerISt5tupleIJZZN8TestCase7runImplIJZN16IncrementRegular3runEvEUlvE_ZNS5_3runEvEUlvE0_EEE10TestResultDpT_ENKUlT_E_clIS6_EEDaSB_EUlvE_EEEEEE+8)
	addiu	$2,$2,%lo(_ZTVNSt6thread11_State_implINS_8_InvokerISt5tupleIJZZN8TestCase7runImplIJZN16IncrementRegular3runEvEUlvE_ZNS5_3runEvEUlvE0_EEE10TestResultDpT_ENKUlT_E_clIS6_EEDaSB_EUlvE_EEEEEE+8)
	sw	$16,24($sp)
	sw	$31,28($sp)
	.cfi_offset 16, -8
	.cfi_offset 31, -4
	move	$16,$4
	jal	_ZNSt6thread6_StateD2Ev
	sw	$2,0($4)

	lw	$31,28($sp)
	move	$4,$16
	lw	$16,24($sp)
	li	$5,20			# 0x14
	.cfi_restore 16
	.cfi_restore 31
	j	_ZdlPvj
	addiu	$sp,$sp,32

	.cfi_def_cfa_offset 0
	.set	macro
	.set	reorder
	.end	_ZNSt6thread11_State_implINS_8_InvokerISt5tupleIJZZN8TestCase7runImplIJZN16IncrementRegular3runEvEUlvE_ZNS5_3runEvEUlvE0_EEE10TestResultDpT_ENKUlT_E_clIS6_EEDaSB_EUlvE_EEEEED0Ev
	.cfi_endproc
$LFE7177:
	.size	_ZNSt6thread11_State_implINS_8_InvokerISt5tupleIJZZN8TestCase7runImplIJZN16IncrementRegular3runEvEUlvE_ZNS5_3runEvEUlvE0_EEE10TestResultDpT_ENKUlT_E_clIS6_EEDaSB_EUlvE_EEEEED0Ev, .-_ZNSt6thread11_State_implINS_8_InvokerISt5tupleIJZZN8TestCase7runImplIJZN16IncrementRegular3runEvEUlvE_ZNS5_3runEvEUlvE0_EEE10TestResultDpT_ENKUlT_E_clIS6_EEDaSB_EUlvE_EEEEED0Ev
	.section	.text._ZNSt6thread11_State_implINS_8_InvokerISt5tupleIJZZN8TestCase7runImplIJZN7SeqCst23runEvEUlvE_ZNS5_3runEvEUlvE0_EEE10TestResultDpT_ENKUlT_E_clIS7_EEDaSB_EUlvE_EEEEED2Ev,"axG",@progbits,_ZNSt6thread11_State_implINS_8_InvokerISt5tupleIJZZN8TestCase7runImplIJZN7SeqCst23runEvEUlvE_ZNS5_3runEvEUlvE0_EEE10TestResultDpT_ENKUlT_E_clIS7_EEDaSB_EUlvE_EEEEED5Ev,comdat
	.align	2
	.weak	_ZNSt6thread11_State_implINS_8_InvokerISt5tupleIJZZN8TestCase7runImplIJZN7SeqCst23runEvEUlvE_ZNS5_3runEvEUlvE0_EEE10TestResultDpT_ENKUlT_E_clIS7_EEDaSB_EUlvE_EEEEED2Ev
$LFB7067 = .
	.cfi_startproc
	.set	nomips16
	.set	nomicromips
	.ent	_ZNSt6thread11_State_implINS_8_InvokerISt5tupleIJZZN8TestCase7runImplIJZN7SeqCst23runEvEUlvE_ZNS5_3runEvEUlvE0_EEE10TestResultDpT_ENKUlT_E_clIS7_EEDaSB_EUlvE_EEEEED2Ev
	.type	_ZNSt6thread11_State_implINS_8_InvokerISt5tupleIJZZN8TestCase7runImplIJZN7SeqCst23runEvEUlvE_ZNS5_3runEvEUlvE0_EEE10TestResultDpT_ENKUlT_E_clIS7_EEDaSB_EUlvE_EEEEED2Ev, @function
_ZNSt6thread11_State_implINS_8_InvokerISt5tupleIJZZN8TestCase7runImplIJZN7SeqCst23runEvEUlvE_ZNS5_3runEvEUlvE0_EEE10TestResultDpT_ENKUlT_E_clIS7_EEDaSB_EUlvE_EEEEED2Ev:
	.frame	$sp,0,$31		# vars= 0, regs= 0/0, args= 0, gp= 0
	.mask	0x00000000,0
	.fmask	0x00000000,0
	.set	noreorder
	.set	nomacro
	lui	$2,%hi(_ZTVNSt6thread11_State_implINS_8_InvokerISt5tupleIJZZN8TestCase7runImplIJZN7SeqCst23runEvEUlvE_ZNS5_3runEvEUlvE0_EEE10TestResultDpT_ENKUlT_E_clIS7_EEDaSB_EUlvE_EEEEEE+8)
	addiu	$2,$2,%lo(_ZTVNSt6thread11_State_implINS_8_InvokerISt5tupleIJZZN8TestCase7runImplIJZN7SeqCst23runEvEUlvE_ZNS5_3runEvEUlvE0_EEE10TestResultDpT_ENKUlT_E_clIS7_EEDaSB_EUlvE_EEEEEE+8)
	j	_ZNSt6thread6_StateD2Ev
	sw	$2,0($4)

	.set	macro
	.set	reorder
	.end	_ZNSt6thread11_State_implINS_8_InvokerISt5tupleIJZZN8TestCase7runImplIJZN7SeqCst23runEvEUlvE_ZNS5_3runEvEUlvE0_EEE10TestResultDpT_ENKUlT_E_clIS7_EEDaSB_EUlvE_EEEEED2Ev
	.cfi_endproc
$LFE7067:
	.size	_ZNSt6thread11_State_implINS_8_InvokerISt5tupleIJZZN8TestCase7runImplIJZN7SeqCst23runEvEUlvE_ZNS5_3runEvEUlvE0_EEE10TestResultDpT_ENKUlT_E_clIS7_EEDaSB_EUlvE_EEEEED2Ev, .-_ZNSt6thread11_State_implINS_8_InvokerISt5tupleIJZZN8TestCase7runImplIJZN7SeqCst23runEvEUlvE_ZNS5_3runEvEUlvE0_EEE10TestResultDpT_ENKUlT_E_clIS7_EEDaSB_EUlvE_EEEEED2Ev
	.weak	_ZNSt6thread11_State_implINS_8_InvokerISt5tupleIJZZN8TestCase7runImplIJZN7SeqCst23runEvEUlvE_ZNS5_3runEvEUlvE0_EEE10TestResultDpT_ENKUlT_E_clIS7_EEDaSB_EUlvE_EEEEED1Ev
	_ZNSt6thread11_State_implINS_8_InvokerISt5tupleIJZZN8TestCase7runImplIJZN7SeqCst23runEvEUlvE_ZNS5_3runEvEUlvE0_EEE10TestResultDpT_ENKUlT_E_clIS7_EEDaSB_EUlvE_EEEEED1Ev = _ZNSt6thread11_State_implINS_8_InvokerISt5tupleIJZZN8TestCase7runImplIJZN7SeqCst23runEvEUlvE_ZNS5_3runEvEUlvE0_EEE10TestResultDpT_ENKUlT_E_clIS7_EEDaSB_EUlvE_EEEEED2Ev
	.section	.text._ZNSt6thread11_State_implINS_8_InvokerISt5tupleIJZZN8TestCase7runImplIJZN7SeqCst23runEvEUlvE_ZNS5_3runEvEUlvE0_EEE10TestResultDpT_ENKUlT_E_clIS7_EEDaSB_EUlvE_EEEEED0Ev,"axG",@progbits,_ZNSt6thread11_State_implINS_8_InvokerISt5tupleIJZZN8TestCase7runImplIJZN7SeqCst23runEvEUlvE_ZNS5_3runEvEUlvE0_EEE10TestResultDpT_ENKUlT_E_clIS7_EEDaSB_EUlvE_EEEEED5Ev,comdat
	.align	2
	.weak	_ZNSt6thread11_State_implINS_8_InvokerISt5tupleIJZZN8TestCase7runImplIJZN7SeqCst23runEvEUlvE_ZNS5_3runEvEUlvE0_EEE10TestResultDpT_ENKUlT_E_clIS7_EEDaSB_EUlvE_EEEEED0Ev
$LFB7069 = .
	.cfi_startproc
	.set	nomips16
	.set	nomicromips
	.ent	_ZNSt6thread11_State_implINS_8_InvokerISt5tupleIJZZN8TestCase7runImplIJZN7SeqCst23runEvEUlvE_ZNS5_3runEvEUlvE0_EEE10TestResultDpT_ENKUlT_E_clIS7_EEDaSB_EUlvE_EEEEED0Ev
	.type	_ZNSt6thread11_State_implINS_8_InvokerISt5tupleIJZZN8TestCase7runImplIJZN7SeqCst23runEvEUlvE_ZNS5_3runEvEUlvE0_EEE10TestResultDpT_ENKUlT_E_clIS7_EEDaSB_EUlvE_EEEEED0Ev, @function
_ZNSt6thread11_State_implINS_8_InvokerISt5tupleIJZZN8TestCase7runImplIJZN7SeqCst23runEvEUlvE_ZNS5_3runEvEUlvE0_EEE10TestResultDpT_ENKUlT_E_clIS7_EEDaSB_EUlvE_EEEEED0Ev:
	.frame	$sp,32,$31		# vars= 0, regs= 2/0, args= 16, gp= 8
	.mask	0x80010000,-4
	.fmask	0x00000000,0
	.set	noreorder
	.set	nomacro
	addiu	$sp,$sp,-32
	.cfi_def_cfa_offset 32
	lui	$2,%hi(_ZTVNSt6thread11_State_implINS_8_InvokerISt5tupleIJZZN8TestCase7runImplIJZN7SeqCst23runEvEUlvE_ZNS5_3runEvEUlvE0_EEE10TestResultDpT_ENKUlT_E_clIS7_EEDaSB_EUlvE_EEEEEE+8)
	addiu	$2,$2,%lo(_ZTVNSt6thread11_State_implINS_8_InvokerISt5tupleIJZZN8TestCase7runImplIJZN7SeqCst23runEvEUlvE_ZNS5_3runEvEUlvE0_EEE10TestResultDpT_ENKUlT_E_clIS7_EEDaSB_EUlvE_EEEEEE+8)
	sw	$16,24($sp)
	sw	$31,28($sp)
	.cfi_offset 16, -8
	.cfi_offset 31, -4
	move	$16,$4
	jal	_ZNSt6thread6_StateD2Ev
	sw	$2,0($4)

	lw	$31,28($sp)
	move	$4,$16
	lw	$16,24($sp)
	li	$5,20			# 0x14
	.cfi_restore 16
	.cfi_restore 31
	j	_ZdlPvj
	addiu	$sp,$sp,32

	.cfi_def_cfa_offset 0
	.set	macro
	.set	reorder
	.end	_ZNSt6thread11_State_implINS_8_InvokerISt5tupleIJZZN8TestCase7runImplIJZN7SeqCst23runEvEUlvE_ZNS5_3runEvEUlvE0_EEE10TestResultDpT_ENKUlT_E_clIS7_EEDaSB_EUlvE_EEEEED0Ev
	.cfi_endproc
$LFE7069:
	.size	_ZNSt6thread11_State_implINS_8_InvokerISt5tupleIJZZN8TestCase7runImplIJZN7SeqCst23runEvEUlvE_ZNS5_3runEvEUlvE0_EEE10TestResultDpT_ENKUlT_E_clIS7_EEDaSB_EUlvE_EEEEED0Ev, .-_ZNSt6thread11_State_implINS_8_InvokerISt5tupleIJZZN8TestCase7runImplIJZN7SeqCst23runEvEUlvE_ZNS5_3runEvEUlvE0_EEE10TestResultDpT_ENKUlT_E_clIS7_EEDaSB_EUlvE_EEEEED0Ev
	.section	.text._ZNSt6thread11_State_implINS_8_InvokerISt5tupleIJZZN8TestCase7runImplIJZN7SeqCst23runEvEUlvE_ZNS5_3runEvEUlvE0_EEE10TestResultDpT_ENKUlT_E_clIS6_EEDaSB_EUlvE_EEEEED2Ev,"axG",@progbits,_ZNSt6thread11_State_implINS_8_InvokerISt5tupleIJZZN8TestCase7runImplIJZN7SeqCst23runEvEUlvE_ZNS5_3runEvEUlvE0_EEE10TestResultDpT_ENKUlT_E_clIS6_EEDaSB_EUlvE_EEEEED5Ev,comdat
	.align	2
	.weak	_ZNSt6thread11_State_implINS_8_InvokerISt5tupleIJZZN8TestCase7runImplIJZN7SeqCst23runEvEUlvE_ZNS5_3runEvEUlvE0_EEE10TestResultDpT_ENKUlT_E_clIS6_EEDaSB_EUlvE_EEEEED2Ev
$LFB7071 = .
	.cfi_startproc
	.set	nomips16
	.set	nomicromips
	.ent	_ZNSt6thread11_State_implINS_8_InvokerISt5tupleIJZZN8TestCase7runImplIJZN7SeqCst23runEvEUlvE_ZNS5_3runEvEUlvE0_EEE10TestResultDpT_ENKUlT_E_clIS6_EEDaSB_EUlvE_EEEEED2Ev
	.type	_ZNSt6thread11_State_implINS_8_InvokerISt5tupleIJZZN8TestCase7runImplIJZN7SeqCst23runEvEUlvE_ZNS5_3runEvEUlvE0_EEE10TestResultDpT_ENKUlT_E_clIS6_EEDaSB_EUlvE_EEEEED2Ev, @function
_ZNSt6thread11_State_implINS_8_InvokerISt5tupleIJZZN8TestCase7runImplIJZN7SeqCst23runEvEUlvE_ZNS5_3runEvEUlvE0_EEE10TestResultDpT_ENKUlT_E_clIS6_EEDaSB_EUlvE_EEEEED2Ev:
	.frame	$sp,0,$31		# vars= 0, regs= 0/0, args= 0, gp= 0
	.mask	0x00000000,0
	.fmask	0x00000000,0
	.set	noreorder
	.set	nomacro
	lui	$2,%hi(_ZTVNSt6thread11_State_implINS_8_InvokerISt5tupleIJZZN8TestCase7runImplIJZN7SeqCst23runEvEUlvE_ZNS5_3runEvEUlvE0_EEE10TestResultDpT_ENKUlT_E_clIS6_EEDaSB_EUlvE_EEEEEE+8)
	addiu	$2,$2,%lo(_ZTVNSt6thread11_State_implINS_8_InvokerISt5tupleIJZZN8TestCase7runImplIJZN7SeqCst23runEvEUlvE_ZNS5_3runEvEUlvE0_EEE10TestResultDpT_ENKUlT_E_clIS6_EEDaSB_EUlvE_EEEEEE+8)
	j	_ZNSt6thread6_StateD2Ev
	sw	$2,0($4)

	.set	macro
	.set	reorder
	.end	_ZNSt6thread11_State_implINS_8_InvokerISt5tupleIJZZN8TestCase7runImplIJZN7SeqCst23runEvEUlvE_ZNS5_3runEvEUlvE0_EEE10TestResultDpT_ENKUlT_E_clIS6_EEDaSB_EUlvE_EEEEED2Ev
	.cfi_endproc
$LFE7071:
	.size	_ZNSt6thread11_State_implINS_8_InvokerISt5tupleIJZZN8TestCase7runImplIJZN7SeqCst23runEvEUlvE_ZNS5_3runEvEUlvE0_EEE10TestResultDpT_ENKUlT_E_clIS6_EEDaSB_EUlvE_EEEEED2Ev, .-_ZNSt6thread11_State_implINS_8_InvokerISt5tupleIJZZN8TestCase7runImplIJZN7SeqCst23runEvEUlvE_ZNS5_3runEvEUlvE0_EEE10TestResultDpT_ENKUlT_E_clIS6_EEDaSB_EUlvE_EEEEED2Ev
	.weak	_ZNSt6thread11_State_implINS_8_InvokerISt5tupleIJZZN8TestCase7runImplIJZN7SeqCst23runEvEUlvE_ZNS5_3runEvEUlvE0_EEE10TestResultDpT_ENKUlT_E_clIS6_EEDaSB_EUlvE_EEEEED1Ev
	_ZNSt6thread11_State_implINS_8_InvokerISt5tupleIJZZN8TestCase7runImplIJZN7SeqCst23runEvEUlvE_ZNS5_3runEvEUlvE0_EEE10TestResultDpT_ENKUlT_E_clIS6_EEDaSB_EUlvE_EEEEED1Ev = _ZNSt6thread11_State_implINS_8_InvokerISt5tupleIJZZN8TestCase7runImplIJZN7SeqCst23runEvEUlvE_ZNS5_3runEvEUlvE0_EEE10TestResultDpT_ENKUlT_E_clIS6_EEDaSB_EUlvE_EEEEED2Ev
	.section	.text._ZNSt6thread11_State_implINS_8_InvokerISt5tupleIJZZN8TestCase7runImplIJZN7SeqCst23runEvEUlvE_ZNS5_3runEvEUlvE0_EEE10TestResultDpT_ENKUlT_E_clIS6_EEDaSB_EUlvE_EEEEED0Ev,"axG",@progbits,_ZNSt6thread11_State_implINS_8_InvokerISt5tupleIJZZN8TestCase7runImplIJZN7SeqCst23runEvEUlvE_ZNS5_3runEvEUlvE0_EEE10TestResultDpT_ENKUlT_E_clIS6_EEDaSB_EUlvE_EEEEED5Ev,comdat
	.align	2
	.weak	_ZNSt6thread11_State_implINS_8_InvokerISt5tupleIJZZN8TestCase7runImplIJZN7SeqCst23runEvEUlvE_ZNS5_3runEvEUlvE0_EEE10TestResultDpT_ENKUlT_E_clIS6_EEDaSB_EUlvE_EEEEED0Ev
$LFB7073 = .
	.cfi_startproc
	.set	nomips16
	.set	nomicromips
	.ent	_ZNSt6thread11_State_implINS_8_InvokerISt5tupleIJZZN8TestCase7runImplIJZN7SeqCst23runEvEUlvE_ZNS5_3runEvEUlvE0_EEE10TestResultDpT_ENKUlT_E_clIS6_EEDaSB_EUlvE_EEEEED0Ev
	.type	_ZNSt6thread11_State_implINS_8_InvokerISt5tupleIJZZN8TestCase7runImplIJZN7SeqCst23runEvEUlvE_ZNS5_3runEvEUlvE0_EEE10TestResultDpT_ENKUlT_E_clIS6_EEDaSB_EUlvE_EEEEED0Ev, @function
_ZNSt6thread11_State_implINS_8_InvokerISt5tupleIJZZN8TestCase7runImplIJZN7SeqCst23runEvEUlvE_ZNS5_3runEvEUlvE0_EEE10TestResultDpT_ENKUlT_E_clIS6_EEDaSB_EUlvE_EEEEED0Ev:
	.frame	$sp,32,$31		# vars= 0, regs= 2/0, args= 16, gp= 8
	.mask	0x80010000,-4
	.fmask	0x00000000,0
	.set	noreorder
	.set	nomacro
	addiu	$sp,$sp,-32
	.cfi_def_cfa_offset 32
	lui	$2,%hi(_ZTVNSt6thread11_State_implINS_8_InvokerISt5tupleIJZZN8TestCase7runImplIJZN7SeqCst23runEvEUlvE_ZNS5_3runEvEUlvE0_EEE10TestResultDpT_ENKUlT_E_clIS6_EEDaSB_EUlvE_EEEEEE+8)
	addiu	$2,$2,%lo(_ZTVNSt6thread11_State_implINS_8_InvokerISt5tupleIJZZN8TestCase7runImplIJZN7SeqCst23runEvEUlvE_ZNS5_3runEvEUlvE0_EEE10TestResultDpT_ENKUlT_E_clIS6_EEDaSB_EUlvE_EEEEEE+8)
	sw	$16,24($sp)
	sw	$31,28($sp)
	.cfi_offset 16, -8
	.cfi_offset 31, -4
	move	$16,$4
	jal	_ZNSt6thread6_StateD2Ev
	sw	$2,0($4)

	lw	$31,28($sp)
	move	$4,$16
	lw	$16,24($sp)
	li	$5,20			# 0x14
	.cfi_restore 16
	.cfi_restore 31
	j	_ZdlPvj
	addiu	$sp,$sp,32

	.cfi_def_cfa_offset 0
	.set	macro
	.set	reorder
	.end	_ZNSt6thread11_State_implINS_8_InvokerISt5tupleIJZZN8TestCase7runImplIJZN7SeqCst23runEvEUlvE_ZNS5_3runEvEUlvE0_EEE10TestResultDpT_ENKUlT_E_clIS6_EEDaSB_EUlvE_EEEEED0Ev
	.cfi_endproc
$LFE7073:
	.size	_ZNSt6thread11_State_implINS_8_InvokerISt5tupleIJZZN8TestCase7runImplIJZN7SeqCst23runEvEUlvE_ZNS5_3runEvEUlvE0_EEE10TestResultDpT_ENKUlT_E_clIS6_EEDaSB_EUlvE_EEEEED0Ev, .-_ZNSt6thread11_State_implINS_8_InvokerISt5tupleIJZZN8TestCase7runImplIJZN7SeqCst23runEvEUlvE_ZNS5_3runEvEUlvE0_EEE10TestResultDpT_ENKUlT_E_clIS6_EEDaSB_EUlvE_EEEEED0Ev
	.section	.text._ZNSt6thread11_State_implINS_8_InvokerISt5tupleIJZZN8TestCase7runImplIJZN13SeqCstAcqRel23runEvEUlvE_ZNS5_3runEvEUlvE0_EEE10TestResultDpT_ENKUlT_E_clIS7_EEDaSB_EUlvE_EEEEED2Ev,"axG",@progbits,_ZNSt6thread11_State_implINS_8_InvokerISt5tupleIJZZN8TestCase7runImplIJZN13SeqCstAcqRel23runEvEUlvE_ZNS5_3runEvEUlvE0_EEE10TestResultDpT_ENKUlT_E_clIS7_EEDaSB_EUlvE_EEEEED5Ev,comdat
	.align	2
	.weak	_ZNSt6thread11_State_implINS_8_InvokerISt5tupleIJZZN8TestCase7runImplIJZN13SeqCstAcqRel23runEvEUlvE_ZNS5_3runEvEUlvE0_EEE10TestResultDpT_ENKUlT_E_clIS7_EEDaSB_EUlvE_EEEEED2Ev
$LFB7075 = .
	.cfi_startproc
	.set	nomips16
	.set	nomicromips
	.ent	_ZNSt6thread11_State_implINS_8_InvokerISt5tupleIJZZN8TestCase7runImplIJZN13SeqCstAcqRel23runEvEUlvE_ZNS5_3runEvEUlvE0_EEE10TestResultDpT_ENKUlT_E_clIS7_EEDaSB_EUlvE_EEEEED2Ev
	.type	_ZNSt6thread11_State_implINS_8_InvokerISt5tupleIJZZN8TestCase7runImplIJZN13SeqCstAcqRel23runEvEUlvE_ZNS5_3runEvEUlvE0_EEE10TestResultDpT_ENKUlT_E_clIS7_EEDaSB_EUlvE_EEEEED2Ev, @function
_ZNSt6thread11_State_implINS_8_InvokerISt5tupleIJZZN8TestCase7runImplIJZN13SeqCstAcqRel23runEvEUlvE_ZNS5_3runEvEUlvE0_EEE10TestResultDpT_ENKUlT_E_clIS7_EEDaSB_EUlvE_EEEEED2Ev:
	.frame	$sp,0,$31		# vars= 0, regs= 0/0, args= 0, gp= 0
	.mask	0x00000000,0
	.fmask	0x00000000,0
	.set	noreorder
	.set	nomacro
	lui	$2,%hi(_ZTVNSt6thread11_State_implINS_8_InvokerISt5tupleIJZZN8TestCase7runImplIJZN13SeqCstAcqRel23runEvEUlvE_ZNS5_3runEvEUlvE0_EEE10TestResultDpT_ENKUlT_E_clIS7_EEDaSB_EUlvE_EEEEEE+8)
	addiu	$2,$2,%lo(_ZTVNSt6thread11_State_implINS_8_InvokerISt5tupleIJZZN8TestCase7runImplIJZN13SeqCstAcqRel23runEvEUlvE_ZNS5_3runEvEUlvE0_EEE10TestResultDpT_ENKUlT_E_clIS7_EEDaSB_EUlvE_EEEEEE+8)
	j	_ZNSt6thread6_StateD2Ev
	sw	$2,0($4)

	.set	macro
	.set	reorder
	.end	_ZNSt6thread11_State_implINS_8_InvokerISt5tupleIJZZN8TestCase7runImplIJZN13SeqCstAcqRel23runEvEUlvE_ZNS5_3runEvEUlvE0_EEE10TestResultDpT_ENKUlT_E_clIS7_EEDaSB_EUlvE_EEEEED2Ev
	.cfi_endproc
$LFE7075:
	.size	_ZNSt6thread11_State_implINS_8_InvokerISt5tupleIJZZN8TestCase7runImplIJZN13SeqCstAcqRel23runEvEUlvE_ZNS5_3runEvEUlvE0_EEE10TestResultDpT_ENKUlT_E_clIS7_EEDaSB_EUlvE_EEEEED2Ev, .-_ZNSt6thread11_State_implINS_8_InvokerISt5tupleIJZZN8TestCase7runImplIJZN13SeqCstAcqRel23runEvEUlvE_ZNS5_3runEvEUlvE0_EEE10TestResultDpT_ENKUlT_E_clIS7_EEDaSB_EUlvE_EEEEED2Ev
	.weak	_ZNSt6thread11_State_implINS_8_InvokerISt5tupleIJZZN8TestCase7runImplIJZN13SeqCstAcqRel23runEvEUlvE_ZNS5_3runEvEUlvE0_EEE10TestResultDpT_ENKUlT_E_clIS7_EEDaSB_EUlvE_EEEEED1Ev
	_ZNSt6thread11_State_implINS_8_InvokerISt5tupleIJZZN8TestCase7runImplIJZN13SeqCstAcqRel23runEvEUlvE_ZNS5_3runEvEUlvE0_EEE10TestResultDpT_ENKUlT_E_clIS7_EEDaSB_EUlvE_EEEEED1Ev = _ZNSt6thread11_State_implINS_8_InvokerISt5tupleIJZZN8TestCase7runImplIJZN13SeqCstAcqRel23runEvEUlvE_ZNS5_3runEvEUlvE0_EEE10TestResultDpT_ENKUlT_E_clIS7_EEDaSB_EUlvE_EEEEED2Ev
	.section	.text._ZNSt6thread11_State_implINS_8_InvokerISt5tupleIJZZN8TestCase7runImplIJZN13SeqCstAcqRel23runEvEUlvE_ZNS5_3runEvEUlvE0_EEE10TestResultDpT_ENKUlT_E_clIS7_EEDaSB_EUlvE_EEEEED0Ev,"axG",@progbits,_ZNSt6thread11_State_implINS_8_InvokerISt5tupleIJZZN8TestCase7runImplIJZN13SeqCstAcqRel23runEvEUlvE_ZNS5_3runEvEUlvE0_EEE10TestResultDpT_ENKUlT_E_clIS7_EEDaSB_EUlvE_EEEEED5Ev,comdat
	.align	2
	.weak	_ZNSt6thread11_State_implINS_8_InvokerISt5tupleIJZZN8TestCase7runImplIJZN13SeqCstAcqRel23runEvEUlvE_ZNS5_3runEvEUlvE0_EEE10TestResultDpT_ENKUlT_E_clIS7_EEDaSB_EUlvE_EEEEED0Ev
$LFB7077 = .
	.cfi_startproc
	.set	nomips16
	.set	nomicromips
	.ent	_ZNSt6thread11_State_implINS_8_InvokerISt5tupleIJZZN8TestCase7runImplIJZN13SeqCstAcqRel23runEvEUlvE_ZNS5_3runEvEUlvE0_EEE10TestResultDpT_ENKUlT_E_clIS7_EEDaSB_EUlvE_EEEEED0Ev
	.type	_ZNSt6thread11_State_implINS_8_InvokerISt5tupleIJZZN8TestCase7runImplIJZN13SeqCstAcqRel23runEvEUlvE_ZNS5_3runEvEUlvE0_EEE10TestResultDpT_ENKUlT_E_clIS7_EEDaSB_EUlvE_EEEEED0Ev, @function
_ZNSt6thread11_State_implINS_8_InvokerISt5tupleIJZZN8TestCase7runImplIJZN13SeqCstAcqRel23runEvEUlvE_ZNS5_3runEvEUlvE0_EEE10TestResultDpT_ENKUlT_E_clIS7_EEDaSB_EUlvE_EEEEED0Ev:
	.frame	$sp,32,$31		# vars= 0, regs= 2/0, args= 16, gp= 8
	.mask	0x80010000,-4
	.fmask	0x00000000,0
	.set	noreorder
	.set	nomacro
	addiu	$sp,$sp,-32
	.cfi_def_cfa_offset 32
	lui	$2,%hi(_ZTVNSt6thread11_State_implINS_8_InvokerISt5tupleIJZZN8TestCase7runImplIJZN13SeqCstAcqRel23runEvEUlvE_ZNS5_3runEvEUlvE0_EEE10TestResultDpT_ENKUlT_E_clIS7_EEDaSB_EUlvE_EEEEEE+8)
	addiu	$2,$2,%lo(_ZTVNSt6thread11_State_implINS_8_InvokerISt5tupleIJZZN8TestCase7runImplIJZN13SeqCstAcqRel23runEvEUlvE_ZNS5_3runEvEUlvE0_EEE10TestResultDpT_ENKUlT_E_clIS7_EEDaSB_EUlvE_EEEEEE+8)
	sw	$16,24($sp)
	sw	$31,28($sp)
	.cfi_offset 16, -8
	.cfi_offset 31, -4
	move	$16,$4
	jal	_ZNSt6thread6_StateD2Ev
	sw	$2,0($4)

	lw	$31,28($sp)
	move	$4,$16
	lw	$16,24($sp)
	li	$5,20			# 0x14
	.cfi_restore 16
	.cfi_restore 31
	j	_ZdlPvj
	addiu	$sp,$sp,32

	.cfi_def_cfa_offset 0
	.set	macro
	.set	reorder
	.end	_ZNSt6thread11_State_implINS_8_InvokerISt5tupleIJZZN8TestCase7runImplIJZN13SeqCstAcqRel23runEvEUlvE_ZNS5_3runEvEUlvE0_EEE10TestResultDpT_ENKUlT_E_clIS7_EEDaSB_EUlvE_EEEEED0Ev
	.cfi_endproc
$LFE7077:
	.size	_ZNSt6thread11_State_implINS_8_InvokerISt5tupleIJZZN8TestCase7runImplIJZN13SeqCstAcqRel23runEvEUlvE_ZNS5_3runEvEUlvE0_EEE10TestResultDpT_ENKUlT_E_clIS7_EEDaSB_EUlvE_EEEEED0Ev, .-_ZNSt6thread11_State_implINS_8_InvokerISt5tupleIJZZN8TestCase7runImplIJZN13SeqCstAcqRel23runEvEUlvE_ZNS5_3runEvEUlvE0_EEE10TestResultDpT_ENKUlT_E_clIS7_EEDaSB_EUlvE_EEEEED0Ev
	.section	.text._ZNSt6thread11_State_implINS_8_InvokerISt5tupleIJZZN8TestCase7runImplIJZN13SeqCstAcqRel23runEvEUlvE_ZNS5_3runEvEUlvE0_EEE10TestResultDpT_ENKUlT_E_clIS6_EEDaSB_EUlvE_EEEEED2Ev,"axG",@progbits,_ZNSt6thread11_State_implINS_8_InvokerISt5tupleIJZZN8TestCase7runImplIJZN13SeqCstAcqRel23runEvEUlvE_ZNS5_3runEvEUlvE0_EEE10TestResultDpT_ENKUlT_E_clIS6_EEDaSB_EUlvE_EEEEED5Ev,comdat
	.align	2
	.weak	_ZNSt6thread11_State_implINS_8_InvokerISt5tupleIJZZN8TestCase7runImplIJZN13SeqCstAcqRel23runEvEUlvE_ZNS5_3runEvEUlvE0_EEE10TestResultDpT_ENKUlT_E_clIS6_EEDaSB_EUlvE_EEEEED2Ev
$LFB7079 = .
	.cfi_startproc
	.set	nomips16
	.set	nomicromips
	.ent	_ZNSt6thread11_State_implINS_8_InvokerISt5tupleIJZZN8TestCase7runImplIJZN13SeqCstAcqRel23runEvEUlvE_ZNS5_3runEvEUlvE0_EEE10TestResultDpT_ENKUlT_E_clIS6_EEDaSB_EUlvE_EEEEED2Ev
	.type	_ZNSt6thread11_State_implINS_8_InvokerISt5tupleIJZZN8TestCase7runImplIJZN13SeqCstAcqRel23runEvEUlvE_ZNS5_3runEvEUlvE0_EEE10TestResultDpT_ENKUlT_E_clIS6_EEDaSB_EUlvE_EEEEED2Ev, @function
_ZNSt6thread11_State_implINS_8_InvokerISt5tupleIJZZN8TestCase7runImplIJZN13SeqCstAcqRel23runEvEUlvE_ZNS5_3runEvEUlvE0_EEE10TestResultDpT_ENKUlT_E_clIS6_EEDaSB_EUlvE_EEEEED2Ev:
	.frame	$sp,0,$31		# vars= 0, regs= 0/0, args= 0, gp= 0
	.mask	0x00000000,0
	.fmask	0x00000000,0
	.set	noreorder
	.set	nomacro
	lui	$2,%hi(_ZTVNSt6thread11_State_implINS_8_InvokerISt5tupleIJZZN8TestCase7runImplIJZN13SeqCstAcqRel23runEvEUlvE_ZNS5_3runEvEUlvE0_EEE10TestResultDpT_ENKUlT_E_clIS6_EEDaSB_EUlvE_EEEEEE+8)
	addiu	$2,$2,%lo(_ZTVNSt6thread11_State_implINS_8_InvokerISt5tupleIJZZN8TestCase7runImplIJZN13SeqCstAcqRel23runEvEUlvE_ZNS5_3runEvEUlvE0_EEE10TestResultDpT_ENKUlT_E_clIS6_EEDaSB_EUlvE_EEEEEE+8)
	j	_ZNSt6thread6_StateD2Ev
	sw	$2,0($4)

	.set	macro
	.set	reorder
	.end	_ZNSt6thread11_State_implINS_8_InvokerISt5tupleIJZZN8TestCase7runImplIJZN13SeqCstAcqRel23runEvEUlvE_ZNS5_3runEvEUlvE0_EEE10TestResultDpT_ENKUlT_E_clIS6_EEDaSB_EUlvE_EEEEED2Ev
	.cfi_endproc
$LFE7079:
	.size	_ZNSt6thread11_State_implINS_8_InvokerISt5tupleIJZZN8TestCase7runImplIJZN13SeqCstAcqRel23runEvEUlvE_ZNS5_3runEvEUlvE0_EEE10TestResultDpT_ENKUlT_E_clIS6_EEDaSB_EUlvE_EEEEED2Ev, .-_ZNSt6thread11_State_implINS_8_InvokerISt5tupleIJZZN8TestCase7runImplIJZN13SeqCstAcqRel23runEvEUlvE_ZNS5_3runEvEUlvE0_EEE10TestResultDpT_ENKUlT_E_clIS6_EEDaSB_EUlvE_EEEEED2Ev
	.weak	_ZNSt6thread11_State_implINS_8_InvokerISt5tupleIJZZN8TestCase7runImplIJZN13SeqCstAcqRel23runEvEUlvE_ZNS5_3runEvEUlvE0_EEE10TestResultDpT_ENKUlT_E_clIS6_EEDaSB_EUlvE_EEEEED1Ev
	_ZNSt6thread11_State_implINS_8_InvokerISt5tupleIJZZN8TestCase7runImplIJZN13SeqCstAcqRel23runEvEUlvE_ZNS5_3runEvEUlvE0_EEE10TestResultDpT_ENKUlT_E_clIS6_EEDaSB_EUlvE_EEEEED1Ev = _ZNSt6thread11_State_implINS_8_InvokerISt5tupleIJZZN8TestCase7runImplIJZN13SeqCstAcqRel23runEvEUlvE_ZNS5_3runEvEUlvE0_EEE10TestResultDpT_ENKUlT_E_clIS6_EEDaSB_EUlvE_EEEEED2Ev
	.section	.text._ZNSt6thread11_State_implINS_8_InvokerISt5tupleIJZZN8TestCase7runImplIJZN13SeqCstAcqRel23runEvEUlvE_ZNS5_3runEvEUlvE0_EEE10TestResultDpT_ENKUlT_E_clIS6_EEDaSB_EUlvE_EEEEED0Ev,"axG",@progbits,_ZNSt6thread11_State_implINS_8_InvokerISt5tupleIJZZN8TestCase7runImplIJZN13SeqCstAcqRel23runEvEUlvE_ZNS5_3runEvEUlvE0_EEE10TestResultDpT_ENKUlT_E_clIS6_EEDaSB_EUlvE_EEEEED5Ev,comdat
	.align	2
	.weak	_ZNSt6thread11_State_implINS_8_InvokerISt5tupleIJZZN8TestCase7runImplIJZN13SeqCstAcqRel23runEvEUlvE_ZNS5_3runEvEUlvE0_EEE10TestResultDpT_ENKUlT_E_clIS6_EEDaSB_EUlvE_EEEEED0Ev
$LFB7081 = .
	.cfi_startproc
	.set	nomips16
	.set	nomicromips
	.ent	_ZNSt6thread11_State_implINS_8_InvokerISt5tupleIJZZN8TestCase7runImplIJZN13SeqCstAcqRel23runEvEUlvE_ZNS5_3runEvEUlvE0_EEE10TestResultDpT_ENKUlT_E_clIS6_EEDaSB_EUlvE_EEEEED0Ev
	.type	_ZNSt6thread11_State_implINS_8_InvokerISt5tupleIJZZN8TestCase7runImplIJZN13SeqCstAcqRel23runEvEUlvE_ZNS5_3runEvEUlvE0_EEE10TestResultDpT_ENKUlT_E_clIS6_EEDaSB_EUlvE_EEEEED0Ev, @function
_ZNSt6thread11_State_implINS_8_InvokerISt5tupleIJZZN8TestCase7runImplIJZN13SeqCstAcqRel23runEvEUlvE_ZNS5_3runEvEUlvE0_EEE10TestResultDpT_ENKUlT_E_clIS6_EEDaSB_EUlvE_EEEEED0Ev:
	.frame	$sp,32,$31		# vars= 0, regs= 2/0, args= 16, gp= 8
	.mask	0x80010000,-4
	.fmask	0x00000000,0
	.set	noreorder
	.set	nomacro
	addiu	$sp,$sp,-32
	.cfi_def_cfa_offset 32
	lui	$2,%hi(_ZTVNSt6thread11_State_implINS_8_InvokerISt5tupleIJZZN8TestCase7runImplIJZN13SeqCstAcqRel23runEvEUlvE_ZNS5_3runEvEUlvE0_EEE10TestResultDpT_ENKUlT_E_clIS6_EEDaSB_EUlvE_EEEEEE+8)
	addiu	$2,$2,%lo(_ZTVNSt6thread11_State_implINS_8_InvokerISt5tupleIJZZN8TestCase7runImplIJZN13SeqCstAcqRel23runEvEUlvE_ZNS5_3runEvEUlvE0_EEE10TestResultDpT_ENKUlT_E_clIS6_EEDaSB_EUlvE_EEEEEE+8)
	sw	$16,24($sp)
	sw	$31,28($sp)
	.cfi_offset 16, -8
	.cfi_offset 31, -4
	move	$16,$4
	jal	_ZNSt6thread6_StateD2Ev
	sw	$2,0($4)

	lw	$31,28($sp)
	move	$4,$16
	lw	$16,24($sp)
	li	$5,20			# 0x14
	.cfi_restore 16
	.cfi_restore 31
	j	_ZdlPvj
	addiu	$sp,$sp,32

	.cfi_def_cfa_offset 0
	.set	macro
	.set	reorder
	.end	_ZNSt6thread11_State_implINS_8_InvokerISt5tupleIJZZN8TestCase7runImplIJZN13SeqCstAcqRel23runEvEUlvE_ZNS5_3runEvEUlvE0_EEE10TestResultDpT_ENKUlT_E_clIS6_EEDaSB_EUlvE_EEEEED0Ev
	.cfi_endproc
$LFE7081:
	.size	_ZNSt6thread11_State_implINS_8_InvokerISt5tupleIJZZN8TestCase7runImplIJZN13SeqCstAcqRel23runEvEUlvE_ZNS5_3runEvEUlvE0_EEE10TestResultDpT_ENKUlT_E_clIS6_EEDaSB_EUlvE_EEEEED0Ev, .-_ZNSt6thread11_State_implINS_8_InvokerISt5tupleIJZZN8TestCase7runImplIJZN13SeqCstAcqRel23runEvEUlvE_ZNS5_3runEvEUlvE0_EEE10TestResultDpT_ENKUlT_E_clIS6_EEDaSB_EUlvE_EEEEED0Ev
	.section	.text._ZNSt6thread11_State_implINS_8_InvokerISt5tupleIJZZN8TestCase7runImplIJZN7SeqCst43runEvEUlvE_ZNS5_3runEvEUlvE0_ZNS5_3runEvEUlvE1_ZNS5_3runEvEUlvE2_EEE10TestResultDpT_ENKUlT_E_clIS9_EEDaSD_EUlvE_EEEEED2Ev,"axG",@progbits,_ZNSt6thread11_State_implINS_8_InvokerISt5tupleIJZZN8TestCase7runImplIJZN7SeqCst43runEvEUlvE_ZNS5_3runEvEUlvE0_ZNS5_3runEvEUlvE1_ZNS5_3runEvEUlvE2_EEE10TestResultDpT_ENKUlT_E_clIS9_EEDaSD_EUlvE_EEEEED5Ev,comdat
	.align	2
	.weak	_ZNSt6thread11_State_implINS_8_InvokerISt5tupleIJZZN8TestCase7runImplIJZN7SeqCst43runEvEUlvE_ZNS5_3runEvEUlvE0_ZNS5_3runEvEUlvE1_ZNS5_3runEvEUlvE2_EEE10TestResultDpT_ENKUlT_E_clIS9_EEDaSD_EUlvE_EEEEED2Ev
$LFB7083 = .
	.cfi_startproc
	.set	nomips16
	.set	nomicromips
	.ent	_ZNSt6thread11_State_implINS_8_InvokerISt5tupleIJZZN8TestCase7runImplIJZN7SeqCst43runEvEUlvE_ZNS5_3runEvEUlvE0_ZNS5_3runEvEUlvE1_ZNS5_3runEvEUlvE2_EEE10TestResultDpT_ENKUlT_E_clIS9_EEDaSD_EUlvE_EEEEED2Ev
	.type	_ZNSt6thread11_State_implINS_8_InvokerISt5tupleIJZZN8TestCase7runImplIJZN7SeqCst43runEvEUlvE_ZNS5_3runEvEUlvE0_ZNS5_3runEvEUlvE1_ZNS5_3runEvEUlvE2_EEE10TestResultDpT_ENKUlT_E_clIS9_EEDaSD_EUlvE_EEEEED2Ev, @function
_ZNSt6thread11_State_implINS_8_InvokerISt5tupleIJZZN8TestCase7runImplIJZN7SeqCst43runEvEUlvE_ZNS5_3runEvEUlvE0_ZNS5_3runEvEUlvE1_ZNS5_3runEvEUlvE2_EEE10TestResultDpT_ENKUlT_E_clIS9_EEDaSD_EUlvE_EEEEED2Ev:
	.frame	$sp,0,$31		# vars= 0, regs= 0/0, args= 0, gp= 0
	.mask	0x00000000,0
	.fmask	0x00000000,0
	.set	noreorder
	.set	nomacro
	lui	$2,%hi(_ZTVNSt6thread11_State_implINS_8_InvokerISt5tupleIJZZN8TestCase7runImplIJZN7SeqCst43runEvEUlvE_ZNS5_3runEvEUlvE0_ZNS5_3runEvEUlvE1_ZNS5_3runEvEUlvE2_EEE10TestResultDpT_ENKUlT_E_clIS9_EEDaSD_EUlvE_EEEEEE+8)
	addiu	$2,$2,%lo(_ZTVNSt6thread11_State_implINS_8_InvokerISt5tupleIJZZN8TestCase7runImplIJZN7SeqCst43runEvEUlvE_ZNS5_3runEvEUlvE0_ZNS5_3runEvEUlvE1_ZNS5_3runEvEUlvE2_EEE10TestResultDpT_ENKUlT_E_clIS9_EEDaSD_EUlvE_EEEEEE+8)
	j	_ZNSt6thread6_StateD2Ev
	sw	$2,0($4)

	.set	macro
	.set	reorder
	.end	_ZNSt6thread11_State_implINS_8_InvokerISt5tupleIJZZN8TestCase7runImplIJZN7SeqCst43runEvEUlvE_ZNS5_3runEvEUlvE0_ZNS5_3runEvEUlvE1_ZNS5_3runEvEUlvE2_EEE10TestResultDpT_ENKUlT_E_clIS9_EEDaSD_EUlvE_EEEEED2Ev
	.cfi_endproc
$LFE7083:
	.size	_ZNSt6thread11_State_implINS_8_InvokerISt5tupleIJZZN8TestCase7runImplIJZN7SeqCst43runEvEUlvE_ZNS5_3runEvEUlvE0_ZNS5_3runEvEUlvE1_ZNS5_3runEvEUlvE2_EEE10TestResultDpT_ENKUlT_E_clIS9_EEDaSD_EUlvE_EEEEED2Ev, .-_ZNSt6thread11_State_implINS_8_InvokerISt5tupleIJZZN8TestCase7runImplIJZN7SeqCst43runEvEUlvE_ZNS5_3runEvEUlvE0_ZNS5_3runEvEUlvE1_ZNS5_3runEvEUlvE2_EEE10TestResultDpT_ENKUlT_E_clIS9_EEDaSD_EUlvE_EEEEED2Ev
	.weak	_ZNSt6thread11_State_implINS_8_InvokerISt5tupleIJZZN8TestCase7runImplIJZN7SeqCst43runEvEUlvE_ZNS5_3runEvEUlvE0_ZNS5_3runEvEUlvE1_ZNS5_3runEvEUlvE2_EEE10TestResultDpT_ENKUlT_E_clIS9_EEDaSD_EUlvE_EEEEED1Ev
	_ZNSt6thread11_State_implINS_8_InvokerISt5tupleIJZZN8TestCase7runImplIJZN7SeqCst43runEvEUlvE_ZNS5_3runEvEUlvE0_ZNS5_3runEvEUlvE1_ZNS5_3runEvEUlvE2_EEE10TestResultDpT_ENKUlT_E_clIS9_EEDaSD_EUlvE_EEEEED1Ev = _ZNSt6thread11_State_implINS_8_InvokerISt5tupleIJZZN8TestCase7runImplIJZN7SeqCst43runEvEUlvE_ZNS5_3runEvEUlvE0_ZNS5_3runEvEUlvE1_ZNS5_3runEvEUlvE2_EEE10TestResultDpT_ENKUlT_E_clIS9_EEDaSD_EUlvE_EEEEED2Ev
	.section	.text._ZNSt6thread11_State_implINS_8_InvokerISt5tupleIJZZN8TestCase7runImplIJZN7SeqCst43runEvEUlvE_ZNS5_3runEvEUlvE0_ZNS5_3runEvEUlvE1_ZNS5_3runEvEUlvE2_EEE10TestResultDpT_ENKUlT_E_clIS9_EEDaSD_EUlvE_EEEEED0Ev,"axG",@progbits,_ZNSt6thread11_State_implINS_8_InvokerISt5tupleIJZZN8TestCase7runImplIJZN7SeqCst43runEvEUlvE_ZNS5_3runEvEUlvE0_ZNS5_3runEvEUlvE1_ZNS5_3runEvEUlvE2_EEE10TestResultDpT_ENKUlT_E_clIS9_EEDaSD_EUlvE_EEEEED5Ev,comdat
	.align	2
	.weak	_ZNSt6thread11_State_implINS_8_InvokerISt5tupleIJZZN8TestCase7runImplIJZN7SeqCst43runEvEUlvE_ZNS5_3runEvEUlvE0_ZNS5_3runEvEUlvE1_ZNS5_3runEvEUlvE2_EEE10TestResultDpT_ENKUlT_E_clIS9_EEDaSD_EUlvE_EEEEED0Ev
$LFB7085 = .
	.cfi_startproc
	.set	nomips16
	.set	nomicromips
	.ent	_ZNSt6thread11_State_implINS_8_InvokerISt5tupleIJZZN8TestCase7runImplIJZN7SeqCst43runEvEUlvE_ZNS5_3runEvEUlvE0_ZNS5_3runEvEUlvE1_ZNS5_3runEvEUlvE2_EEE10TestResultDpT_ENKUlT_E_clIS9_EEDaSD_EUlvE_EEEEED0Ev
	.type	_ZNSt6thread11_State_implINS_8_InvokerISt5tupleIJZZN8TestCase7runImplIJZN7SeqCst43runEvEUlvE_ZNS5_3runEvEUlvE0_ZNS5_3runEvEUlvE1_ZNS5_3runEvEUlvE2_EEE10TestResultDpT_ENKUlT_E_clIS9_EEDaSD_EUlvE_EEEEED0Ev, @function
_ZNSt6thread11_State_implINS_8_InvokerISt5tupleIJZZN8TestCase7runImplIJZN7SeqCst43runEvEUlvE_ZNS5_3runEvEUlvE0_ZNS5_3runEvEUlvE1_ZNS5_3runEvEUlvE2_EEE10TestResultDpT_ENKUlT_E_clIS9_EEDaSD_EUlvE_EEEEED0Ev:
	.frame	$sp,32,$31		# vars= 0, regs= 2/0, args= 16, gp= 8
	.mask	0x80010000,-4
	.fmask	0x00000000,0
	.set	noreorder
	.set	nomacro
	addiu	$sp,$sp,-32
	.cfi_def_cfa_offset 32
	lui	$2,%hi(_ZTVNSt6thread11_State_implINS_8_InvokerISt5tupleIJZZN8TestCase7runImplIJZN7SeqCst43runEvEUlvE_ZNS5_3runEvEUlvE0_ZNS5_3runEvEUlvE1_ZNS5_3runEvEUlvE2_EEE10TestResultDpT_ENKUlT_E_clIS9_EEDaSD_EUlvE_EEEEEE+8)
	addiu	$2,$2,%lo(_ZTVNSt6thread11_State_implINS_8_InvokerISt5tupleIJZZN8TestCase7runImplIJZN7SeqCst43runEvEUlvE_ZNS5_3runEvEUlvE0_ZNS5_3runEvEUlvE1_ZNS5_3runEvEUlvE2_EEE10TestResultDpT_ENKUlT_E_clIS9_EEDaSD_EUlvE_EEEEEE+8)
	sw	$16,24($sp)
	sw	$31,28($sp)
	.cfi_offset 16, -8
	.cfi_offset 31, -4
	move	$16,$4
	jal	_ZNSt6thread6_StateD2Ev
	sw	$2,0($4)

	lw	$31,28($sp)
	move	$4,$16
	lw	$16,24($sp)
	li	$5,20			# 0x14
	.cfi_restore 16
	.cfi_restore 31
	j	_ZdlPvj
	addiu	$sp,$sp,32

	.cfi_def_cfa_offset 0
	.set	macro
	.set	reorder
	.end	_ZNSt6thread11_State_implINS_8_InvokerISt5tupleIJZZN8TestCase7runImplIJZN7SeqCst43runEvEUlvE_ZNS5_3runEvEUlvE0_ZNS5_3runEvEUlvE1_ZNS5_3runEvEUlvE2_EEE10TestResultDpT_ENKUlT_E_clIS9_EEDaSD_EUlvE_EEEEED0Ev
	.cfi_endproc
$LFE7085:
	.size	_ZNSt6thread11_State_implINS_8_InvokerISt5tupleIJZZN8TestCase7runImplIJZN7SeqCst43runEvEUlvE_ZNS5_3runEvEUlvE0_ZNS5_3runEvEUlvE1_ZNS5_3runEvEUlvE2_EEE10TestResultDpT_ENKUlT_E_clIS9_EEDaSD_EUlvE_EEEEED0Ev, .-_ZNSt6thread11_State_implINS_8_InvokerISt5tupleIJZZN8TestCase7runImplIJZN7SeqCst43runEvEUlvE_ZNS5_3runEvEUlvE0_ZNS5_3runEvEUlvE1_ZNS5_3runEvEUlvE2_EEE10TestResultDpT_ENKUlT_E_clIS9_EEDaSD_EUlvE_EEEEED0Ev
	.section	.text._ZNSt6thread11_State_implINS_8_InvokerISt5tupleIJZZN8TestCase7runImplIJZN7SeqCst43runEvEUlvE_ZNS5_3runEvEUlvE0_ZNS5_3runEvEUlvE1_ZNS5_3runEvEUlvE2_EEE10TestResultDpT_ENKUlT_E_clIS6_EEDaSD_EUlvE_EEEEED2Ev,"axG",@progbits,_ZNSt6thread11_State_implINS_8_InvokerISt5tupleIJZZN8TestCase7runImplIJZN7SeqCst43runEvEUlvE_ZNS5_3runEvEUlvE0_ZNS5_3runEvEUlvE1_ZNS5_3runEvEUlvE2_EEE10TestResultDpT_ENKUlT_E_clIS6_EEDaSD_EUlvE_EEEEED5Ev,comdat
	.align	2
	.weak	_ZNSt6thread11_State_implINS_8_InvokerISt5tupleIJZZN8TestCase7runImplIJZN7SeqCst43runEvEUlvE_ZNS5_3runEvEUlvE0_ZNS5_3runEvEUlvE1_ZNS5_3runEvEUlvE2_EEE10TestResultDpT_ENKUlT_E_clIS6_EEDaSD_EUlvE_EEEEED2Ev
$LFB7095 = .
	.cfi_startproc
	.set	nomips16
	.set	nomicromips
	.ent	_ZNSt6thread11_State_implINS_8_InvokerISt5tupleIJZZN8TestCase7runImplIJZN7SeqCst43runEvEUlvE_ZNS5_3runEvEUlvE0_ZNS5_3runEvEUlvE1_ZNS5_3runEvEUlvE2_EEE10TestResultDpT_ENKUlT_E_clIS6_EEDaSD_EUlvE_EEEEED2Ev
	.type	_ZNSt6thread11_State_implINS_8_InvokerISt5tupleIJZZN8TestCase7runImplIJZN7SeqCst43runEvEUlvE_ZNS5_3runEvEUlvE0_ZNS5_3runEvEUlvE1_ZNS5_3runEvEUlvE2_EEE10TestResultDpT_ENKUlT_E_clIS6_EEDaSD_EUlvE_EEEEED2Ev, @function
_ZNSt6thread11_State_implINS_8_InvokerISt5tupleIJZZN8TestCase7runImplIJZN7SeqCst43runEvEUlvE_ZNS5_3runEvEUlvE0_ZNS5_3runEvEUlvE1_ZNS5_3runEvEUlvE2_EEE10TestResultDpT_ENKUlT_E_clIS6_EEDaSD_EUlvE_EEEEED2Ev:
	.frame	$sp,0,$31		# vars= 0, regs= 0/0, args= 0, gp= 0
	.mask	0x00000000,0
	.fmask	0x00000000,0
	.set	noreorder
	.set	nomacro
	lui	$2,%hi(_ZTVNSt6thread11_State_implINS_8_InvokerISt5tupleIJZZN8TestCase7runImplIJZN7SeqCst43runEvEUlvE_ZNS5_3runEvEUlvE0_ZNS5_3runEvEUlvE1_ZNS5_3runEvEUlvE2_EEE10TestResultDpT_ENKUlT_E_clIS6_EEDaSD_EUlvE_EEEEEE+8)
	addiu	$2,$2,%lo(_ZTVNSt6thread11_State_implINS_8_InvokerISt5tupleIJZZN8TestCase7runImplIJZN7SeqCst43runEvEUlvE_ZNS5_3runEvEUlvE0_ZNS5_3runEvEUlvE1_ZNS5_3runEvEUlvE2_EEE10TestResultDpT_ENKUlT_E_clIS6_EEDaSD_EUlvE_EEEEEE+8)
	j	_ZNSt6thread6_StateD2Ev
	sw	$2,0($4)

	.set	macro
	.set	reorder
	.end	_ZNSt6thread11_State_implINS_8_InvokerISt5tupleIJZZN8TestCase7runImplIJZN7SeqCst43runEvEUlvE_ZNS5_3runEvEUlvE0_ZNS5_3runEvEUlvE1_ZNS5_3runEvEUlvE2_EEE10TestResultDpT_ENKUlT_E_clIS6_EEDaSD_EUlvE_EEEEED2Ev
	.cfi_endproc
$LFE7095:
	.size	_ZNSt6thread11_State_implINS_8_InvokerISt5tupleIJZZN8TestCase7runImplIJZN7SeqCst43runEvEUlvE_ZNS5_3runEvEUlvE0_ZNS5_3runEvEUlvE1_ZNS5_3runEvEUlvE2_EEE10TestResultDpT_ENKUlT_E_clIS6_EEDaSD_EUlvE_EEEEED2Ev, .-_ZNSt6thread11_State_implINS_8_InvokerISt5tupleIJZZN8TestCase7runImplIJZN7SeqCst43runEvEUlvE_ZNS5_3runEvEUlvE0_ZNS5_3runEvEUlvE1_ZNS5_3runEvEUlvE2_EEE10TestResultDpT_ENKUlT_E_clIS6_EEDaSD_EUlvE_EEEEED2Ev
	.weak	_ZNSt6thread11_State_implINS_8_InvokerISt5tupleIJZZN8TestCase7runImplIJZN7SeqCst43runEvEUlvE_ZNS5_3runEvEUlvE0_ZNS5_3runEvEUlvE1_ZNS5_3runEvEUlvE2_EEE10TestResultDpT_ENKUlT_E_clIS6_EEDaSD_EUlvE_EEEEED1Ev
	_ZNSt6thread11_State_implINS_8_InvokerISt5tupleIJZZN8TestCase7runImplIJZN7SeqCst43runEvEUlvE_ZNS5_3runEvEUlvE0_ZNS5_3runEvEUlvE1_ZNS5_3runEvEUlvE2_EEE10TestResultDpT_ENKUlT_E_clIS6_EEDaSD_EUlvE_EEEEED1Ev = _ZNSt6thread11_State_implINS_8_InvokerISt5tupleIJZZN8TestCase7runImplIJZN7SeqCst43runEvEUlvE_ZNS5_3runEvEUlvE0_ZNS5_3runEvEUlvE1_ZNS5_3runEvEUlvE2_EEE10TestResultDpT_ENKUlT_E_clIS6_EEDaSD_EUlvE_EEEEED2Ev
	.section	.text._ZNSt6thread11_State_implINS_8_InvokerISt5tupleIJZZN8TestCase7runImplIJZN7SeqCst43runEvEUlvE_ZNS5_3runEvEUlvE0_ZNS5_3runEvEUlvE1_ZNS5_3runEvEUlvE2_EEE10TestResultDpT_ENKUlT_E_clIS6_EEDaSD_EUlvE_EEEEED0Ev,"axG",@progbits,_ZNSt6thread11_State_implINS_8_InvokerISt5tupleIJZZN8TestCase7runImplIJZN7SeqCst43runEvEUlvE_ZNS5_3runEvEUlvE0_ZNS5_3runEvEUlvE1_ZNS5_3runEvEUlvE2_EEE10TestResultDpT_ENKUlT_E_clIS6_EEDaSD_EUlvE_EEEEED5Ev,comdat
	.align	2
	.weak	_ZNSt6thread11_State_implINS_8_InvokerISt5tupleIJZZN8TestCase7runImplIJZN7SeqCst43runEvEUlvE_ZNS5_3runEvEUlvE0_ZNS5_3runEvEUlvE1_ZNS5_3runEvEUlvE2_EEE10TestResultDpT_ENKUlT_E_clIS6_EEDaSD_EUlvE_EEEEED0Ev
$LFB7097 = .
	.cfi_startproc
	.set	nomips16
	.set	nomicromips
	.ent	_ZNSt6thread11_State_implINS_8_InvokerISt5tupleIJZZN8TestCase7runImplIJZN7SeqCst43runEvEUlvE_ZNS5_3runEvEUlvE0_ZNS5_3runEvEUlvE1_ZNS5_3runEvEUlvE2_EEE10TestResultDpT_ENKUlT_E_clIS6_EEDaSD_EUlvE_EEEEED0Ev
	.type	_ZNSt6thread11_State_implINS_8_InvokerISt5tupleIJZZN8TestCase7runImplIJZN7SeqCst43runEvEUlvE_ZNS5_3runEvEUlvE0_ZNS5_3runEvEUlvE1_ZNS5_3runEvEUlvE2_EEE10TestResultDpT_ENKUlT_E_clIS6_EEDaSD_EUlvE_EEEEED0Ev, @function
_ZNSt6thread11_State_implINS_8_InvokerISt5tupleIJZZN8TestCase7runImplIJZN7SeqCst43runEvEUlvE_ZNS5_3runEvEUlvE0_ZNS5_3runEvEUlvE1_ZNS5_3runEvEUlvE2_EEE10TestResultDpT_ENKUlT_E_clIS6_EEDaSD_EUlvE_EEEEED0Ev:
	.frame	$sp,32,$31		# vars= 0, regs= 2/0, args= 16, gp= 8
	.mask	0x80010000,-4
	.fmask	0x00000000,0
	.set	noreorder
	.set	nomacro
	addiu	$sp,$sp,-32
	.cfi_def_cfa_offset 32
	lui	$2,%hi(_ZTVNSt6thread11_State_implINS_8_InvokerISt5tupleIJZZN8TestCase7runImplIJZN7SeqCst43runEvEUlvE_ZNS5_3runEvEUlvE0_ZNS5_3runEvEUlvE1_ZNS5_3runEvEUlvE2_EEE10TestResultDpT_ENKUlT_E_clIS6_EEDaSD_EUlvE_EEEEEE+8)
	addiu	$2,$2,%lo(_ZTVNSt6thread11_State_implINS_8_InvokerISt5tupleIJZZN8TestCase7runImplIJZN7SeqCst43runEvEUlvE_ZNS5_3runEvEUlvE0_ZNS5_3runEvEUlvE1_ZNS5_3runEvEUlvE2_EEE10TestResultDpT_ENKUlT_E_clIS6_EEDaSD_EUlvE_EEEEEE+8)
	sw	$16,24($sp)
	sw	$31,28($sp)
	.cfi_offset 16, -8
	.cfi_offset 31, -4
	move	$16,$4
	jal	_ZNSt6thread6_StateD2Ev
	sw	$2,0($4)

	lw	$31,28($sp)
	move	$4,$16
	lw	$16,24($sp)
	li	$5,20			# 0x14
	.cfi_restore 16
	.cfi_restore 31
	j	_ZdlPvj
	addiu	$sp,$sp,32

	.cfi_def_cfa_offset 0
	.set	macro
	.set	reorder
	.end	_ZNSt6thread11_State_implINS_8_InvokerISt5tupleIJZZN8TestCase7runImplIJZN7SeqCst43runEvEUlvE_ZNS5_3runEvEUlvE0_ZNS5_3runEvEUlvE1_ZNS5_3runEvEUlvE2_EEE10TestResultDpT_ENKUlT_E_clIS6_EEDaSD_EUlvE_EEEEED0Ev
	.cfi_endproc
$LFE7097:
	.size	_ZNSt6thread11_State_implINS_8_InvokerISt5tupleIJZZN8TestCase7runImplIJZN7SeqCst43runEvEUlvE_ZNS5_3runEvEUlvE0_ZNS5_3runEvEUlvE1_ZNS5_3runEvEUlvE2_EEE10TestResultDpT_ENKUlT_E_clIS6_EEDaSD_EUlvE_EEEEED0Ev, .-_ZNSt6thread11_State_implINS_8_InvokerISt5tupleIJZZN8TestCase7runImplIJZN7SeqCst43runEvEUlvE_ZNS5_3runEvEUlvE0_ZNS5_3runEvEUlvE1_ZNS5_3runEvEUlvE2_EEE10TestResultDpT_ENKUlT_E_clIS6_EEDaSD_EUlvE_EEEEED0Ev
	.section	.text._ZNSt6thread11_State_implINS_8_InvokerISt5tupleIJZZN8TestCase7runImplIJZN7SeqCst43runEvEUlvE_ZNS5_3runEvEUlvE0_ZNS5_3runEvEUlvE1_ZNS5_3runEvEUlvE2_EEE10TestResultDpT_ENKUlT_E_clIS7_EEDaSD_EUlvE_EEEEED2Ev,"axG",@progbits,_ZNSt6thread11_State_implINS_8_InvokerISt5tupleIJZZN8TestCase7runImplIJZN7SeqCst43runEvEUlvE_ZNS5_3runEvEUlvE0_ZNS5_3runEvEUlvE1_ZNS5_3runEvEUlvE2_EEE10TestResultDpT_ENKUlT_E_clIS7_EEDaSD_EUlvE_EEEEED5Ev,comdat
	.align	2
	.weak	_ZNSt6thread11_State_implINS_8_InvokerISt5tupleIJZZN8TestCase7runImplIJZN7SeqCst43runEvEUlvE_ZNS5_3runEvEUlvE0_ZNS5_3runEvEUlvE1_ZNS5_3runEvEUlvE2_EEE10TestResultDpT_ENKUlT_E_clIS7_EEDaSD_EUlvE_EEEEED2Ev
$LFB7091 = .
	.cfi_startproc
	.set	nomips16
	.set	nomicromips
	.ent	_ZNSt6thread11_State_implINS_8_InvokerISt5tupleIJZZN8TestCase7runImplIJZN7SeqCst43runEvEUlvE_ZNS5_3runEvEUlvE0_ZNS5_3runEvEUlvE1_ZNS5_3runEvEUlvE2_EEE10TestResultDpT_ENKUlT_E_clIS7_EEDaSD_EUlvE_EEEEED2Ev
	.type	_ZNSt6thread11_State_implINS_8_InvokerISt5tupleIJZZN8TestCase7runImplIJZN7SeqCst43runEvEUlvE_ZNS5_3runEvEUlvE0_ZNS5_3runEvEUlvE1_ZNS5_3runEvEUlvE2_EEE10TestResultDpT_ENKUlT_E_clIS7_EEDaSD_EUlvE_EEEEED2Ev, @function
_ZNSt6thread11_State_implINS_8_InvokerISt5tupleIJZZN8TestCase7runImplIJZN7SeqCst43runEvEUlvE_ZNS5_3runEvEUlvE0_ZNS5_3runEvEUlvE1_ZNS5_3runEvEUlvE2_EEE10TestResultDpT_ENKUlT_E_clIS7_EEDaSD_EUlvE_EEEEED2Ev:
	.frame	$sp,0,$31		# vars= 0, regs= 0/0, args= 0, gp= 0
	.mask	0x00000000,0
	.fmask	0x00000000,0
	.set	noreorder
	.set	nomacro
	lui	$2,%hi(_ZTVNSt6thread11_State_implINS_8_InvokerISt5tupleIJZZN8TestCase7runImplIJZN7SeqCst43runEvEUlvE_ZNS5_3runEvEUlvE0_ZNS5_3runEvEUlvE1_ZNS5_3runEvEUlvE2_EEE10TestResultDpT_ENKUlT_E_clIS7_EEDaSD_EUlvE_EEEEEE+8)
	addiu	$2,$2,%lo(_ZTVNSt6thread11_State_implINS_8_InvokerISt5tupleIJZZN8TestCase7runImplIJZN7SeqCst43runEvEUlvE_ZNS5_3runEvEUlvE0_ZNS5_3runEvEUlvE1_ZNS5_3runEvEUlvE2_EEE10TestResultDpT_ENKUlT_E_clIS7_EEDaSD_EUlvE_EEEEEE+8)
	j	_ZNSt6thread6_StateD2Ev
	sw	$2,0($4)

	.set	macro
	.set	reorder
	.end	_ZNSt6thread11_State_implINS_8_InvokerISt5tupleIJZZN8TestCase7runImplIJZN7SeqCst43runEvEUlvE_ZNS5_3runEvEUlvE0_ZNS5_3runEvEUlvE1_ZNS5_3runEvEUlvE2_EEE10TestResultDpT_ENKUlT_E_clIS7_EEDaSD_EUlvE_EEEEED2Ev
	.cfi_endproc
$LFE7091:
	.size	_ZNSt6thread11_State_implINS_8_InvokerISt5tupleIJZZN8TestCase7runImplIJZN7SeqCst43runEvEUlvE_ZNS5_3runEvEUlvE0_ZNS5_3runEvEUlvE1_ZNS5_3runEvEUlvE2_EEE10TestResultDpT_ENKUlT_E_clIS7_EEDaSD_EUlvE_EEEEED2Ev, .-_ZNSt6thread11_State_implINS_8_InvokerISt5tupleIJZZN8TestCase7runImplIJZN7SeqCst43runEvEUlvE_ZNS5_3runEvEUlvE0_ZNS5_3runEvEUlvE1_ZNS5_3runEvEUlvE2_EEE10TestResultDpT_ENKUlT_E_clIS7_EEDaSD_EUlvE_EEEEED2Ev
	.weak	_ZNSt6thread11_State_implINS_8_InvokerISt5tupleIJZZN8TestCase7runImplIJZN7SeqCst43runEvEUlvE_ZNS5_3runEvEUlvE0_ZNS5_3runEvEUlvE1_ZNS5_3runEvEUlvE2_EEE10TestResultDpT_ENKUlT_E_clIS7_EEDaSD_EUlvE_EEEEED1Ev
	_ZNSt6thread11_State_implINS_8_InvokerISt5tupleIJZZN8TestCase7runImplIJZN7SeqCst43runEvEUlvE_ZNS5_3runEvEUlvE0_ZNS5_3runEvEUlvE1_ZNS5_3runEvEUlvE2_EEE10TestResultDpT_ENKUlT_E_clIS7_EEDaSD_EUlvE_EEEEED1Ev = _ZNSt6thread11_State_implINS_8_InvokerISt5tupleIJZZN8TestCase7runImplIJZN7SeqCst43runEvEUlvE_ZNS5_3runEvEUlvE0_ZNS5_3runEvEUlvE1_ZNS5_3runEvEUlvE2_EEE10TestResultDpT_ENKUlT_E_clIS7_EEDaSD_EUlvE_EEEEED2Ev
	.section	.text._ZNSt6thread11_State_implINS_8_InvokerISt5tupleIJZZN8TestCase7runImplIJZN7SeqCst43runEvEUlvE_ZNS5_3runEvEUlvE0_ZNS5_3runEvEUlvE1_ZNS5_3runEvEUlvE2_EEE10TestResultDpT_ENKUlT_E_clIS7_EEDaSD_EUlvE_EEEEED0Ev,"axG",@progbits,_ZNSt6thread11_State_implINS_8_InvokerISt5tupleIJZZN8TestCase7runImplIJZN7SeqCst43runEvEUlvE_ZNS5_3runEvEUlvE0_ZNS5_3runEvEUlvE1_ZNS5_3runEvEUlvE2_EEE10TestResultDpT_ENKUlT_E_clIS7_EEDaSD_EUlvE_EEEEED5Ev,comdat
	.align	2
	.weak	_ZNSt6thread11_State_implINS_8_InvokerISt5tupleIJZZN8TestCase7runImplIJZN7SeqCst43runEvEUlvE_ZNS5_3runEvEUlvE0_ZNS5_3runEvEUlvE1_ZNS5_3runEvEUlvE2_EEE10TestResultDpT_ENKUlT_E_clIS7_EEDaSD_EUlvE_EEEEED0Ev
$LFB7093 = .
	.cfi_startproc
	.set	nomips16
	.set	nomicromips
	.ent	_ZNSt6thread11_State_implINS_8_InvokerISt5tupleIJZZN8TestCase7runImplIJZN7SeqCst43runEvEUlvE_ZNS5_3runEvEUlvE0_ZNS5_3runEvEUlvE1_ZNS5_3runEvEUlvE2_EEE10TestResultDpT_ENKUlT_E_clIS7_EEDaSD_EUlvE_EEEEED0Ev
	.type	_ZNSt6thread11_State_implINS_8_InvokerISt5tupleIJZZN8TestCase7runImplIJZN7SeqCst43runEvEUlvE_ZNS5_3runEvEUlvE0_ZNS5_3runEvEUlvE1_ZNS5_3runEvEUlvE2_EEE10TestResultDpT_ENKUlT_E_clIS7_EEDaSD_EUlvE_EEEEED0Ev, @function
_ZNSt6thread11_State_implINS_8_InvokerISt5tupleIJZZN8TestCase7runImplIJZN7SeqCst43runEvEUlvE_ZNS5_3runEvEUlvE0_ZNS5_3runEvEUlvE1_ZNS5_3runEvEUlvE2_EEE10TestResultDpT_ENKUlT_E_clIS7_EEDaSD_EUlvE_EEEEED0Ev:
	.frame	$sp,32,$31		# vars= 0, regs= 2/0, args= 16, gp= 8
	.mask	0x80010000,-4
	.fmask	0x00000000,0
	.set	noreorder
	.set	nomacro
	addiu	$sp,$sp,-32
	.cfi_def_cfa_offset 32
	lui	$2,%hi(_ZTVNSt6thread11_State_implINS_8_InvokerISt5tupleIJZZN8TestCase7runImplIJZN7SeqCst43runEvEUlvE_ZNS5_3runEvEUlvE0_ZNS5_3runEvEUlvE1_ZNS5_3runEvEUlvE2_EEE10TestResultDpT_ENKUlT_E_clIS7_EEDaSD_EUlvE_EEEEEE+8)
	addiu	$2,$2,%lo(_ZTVNSt6thread11_State_implINS_8_InvokerISt5tupleIJZZN8TestCase7runImplIJZN7SeqCst43runEvEUlvE_ZNS5_3runEvEUlvE0_ZNS5_3runEvEUlvE1_ZNS5_3runEvEUlvE2_EEE10TestResultDpT_ENKUlT_E_clIS7_EEDaSD_EUlvE_EEEEEE+8)
	sw	$16,24($sp)
	sw	$31,28($sp)
	.cfi_offset 16, -8
	.cfi_offset 31, -4
	move	$16,$4
	jal	_ZNSt6thread6_StateD2Ev
	sw	$2,0($4)

	lw	$31,28($sp)
	move	$4,$16
	lw	$16,24($sp)
	li	$5,20			# 0x14
	.cfi_restore 16
	.cfi_restore 31
	j	_ZdlPvj
	addiu	$sp,$sp,32

	.cfi_def_cfa_offset 0
	.set	macro
	.set	reorder
	.end	_ZNSt6thread11_State_implINS_8_InvokerISt5tupleIJZZN8TestCase7runImplIJZN7SeqCst43runEvEUlvE_ZNS5_3runEvEUlvE0_ZNS5_3runEvEUlvE1_ZNS5_3runEvEUlvE2_EEE10TestResultDpT_ENKUlT_E_clIS7_EEDaSD_EUlvE_EEEEED0Ev
	.cfi_endproc
$LFE7093:
	.size	_ZNSt6thread11_State_implINS_8_InvokerISt5tupleIJZZN8TestCase7runImplIJZN7SeqCst43runEvEUlvE_ZNS5_3runEvEUlvE0_ZNS5_3runEvEUlvE1_ZNS5_3runEvEUlvE2_EEE10TestResultDpT_ENKUlT_E_clIS7_EEDaSD_EUlvE_EEEEED0Ev, .-_ZNSt6thread11_State_implINS_8_InvokerISt5tupleIJZZN8TestCase7runImplIJZN7SeqCst43runEvEUlvE_ZNS5_3runEvEUlvE0_ZNS5_3runEvEUlvE1_ZNS5_3runEvEUlvE2_EEE10TestResultDpT_ENKUlT_E_clIS7_EEDaSD_EUlvE_EEEEED0Ev
	.section	.text._ZNSt6thread11_State_implINS_8_InvokerISt5tupleIJZZN8TestCase7runImplIJZN7SeqCst43runEvEUlvE_ZNS5_3runEvEUlvE0_ZNS5_3runEvEUlvE1_ZNS5_3runEvEUlvE2_EEE10TestResultDpT_ENKUlT_E_clIS8_EEDaSD_EUlvE_EEEEED2Ev,"axG",@progbits,_ZNSt6thread11_State_implINS_8_InvokerISt5tupleIJZZN8TestCase7runImplIJZN7SeqCst43runEvEUlvE_ZNS5_3runEvEUlvE0_ZNS5_3runEvEUlvE1_ZNS5_3runEvEUlvE2_EEE10TestResultDpT_ENKUlT_E_clIS8_EEDaSD_EUlvE_EEEEED5Ev,comdat
	.align	2
	.weak	_ZNSt6thread11_State_implINS_8_InvokerISt5tupleIJZZN8TestCase7runImplIJZN7SeqCst43runEvEUlvE_ZNS5_3runEvEUlvE0_ZNS5_3runEvEUlvE1_ZNS5_3runEvEUlvE2_EEE10TestResultDpT_ENKUlT_E_clIS8_EEDaSD_EUlvE_EEEEED2Ev
$LFB7087 = .
	.cfi_startproc
	.set	nomips16
	.set	nomicromips
	.ent	_ZNSt6thread11_State_implINS_8_InvokerISt5tupleIJZZN8TestCase7runImplIJZN7SeqCst43runEvEUlvE_ZNS5_3runEvEUlvE0_ZNS5_3runEvEUlvE1_ZNS5_3runEvEUlvE2_EEE10TestResultDpT_ENKUlT_E_clIS8_EEDaSD_EUlvE_EEEEED2Ev
	.type	_ZNSt6thread11_State_implINS_8_InvokerISt5tupleIJZZN8TestCase7runImplIJZN7SeqCst43runEvEUlvE_ZNS5_3runEvEUlvE0_ZNS5_3runEvEUlvE1_ZNS5_3runEvEUlvE2_EEE10TestResultDpT_ENKUlT_E_clIS8_EEDaSD_EUlvE_EEEEED2Ev, @function
_ZNSt6thread11_State_implINS_8_InvokerISt5tupleIJZZN8TestCase7runImplIJZN7SeqCst43runEvEUlvE_ZNS5_3runEvEUlvE0_ZNS5_3runEvEUlvE1_ZNS5_3runEvEUlvE2_EEE10TestResultDpT_ENKUlT_E_clIS8_EEDaSD_EUlvE_EEEEED2Ev:
	.frame	$sp,0,$31		# vars= 0, regs= 0/0, args= 0, gp= 0
	.mask	0x00000000,0
	.fmask	0x00000000,0
	.set	noreorder
	.set	nomacro
	lui	$2,%hi(_ZTVNSt6thread11_State_implINS_8_InvokerISt5tupleIJZZN8TestCase7runImplIJZN7SeqCst43runEvEUlvE_ZNS5_3runEvEUlvE0_ZNS5_3runEvEUlvE1_ZNS5_3runEvEUlvE2_EEE10TestResultDpT_ENKUlT_E_clIS8_EEDaSD_EUlvE_EEEEEE+8)
	addiu	$2,$2,%lo(_ZTVNSt6thread11_State_implINS_8_InvokerISt5tupleIJZZN8TestCase7runImplIJZN7SeqCst43runEvEUlvE_ZNS5_3runEvEUlvE0_ZNS5_3runEvEUlvE1_ZNS5_3runEvEUlvE2_EEE10TestResultDpT_ENKUlT_E_clIS8_EEDaSD_EUlvE_EEEEEE+8)
	j	_ZNSt6thread6_StateD2Ev
	sw	$2,0($4)

	.set	macro
	.set	reorder
	.end	_ZNSt6thread11_State_implINS_8_InvokerISt5tupleIJZZN8TestCase7runImplIJZN7SeqCst43runEvEUlvE_ZNS5_3runEvEUlvE0_ZNS5_3runEvEUlvE1_ZNS5_3runEvEUlvE2_EEE10TestResultDpT_ENKUlT_E_clIS8_EEDaSD_EUlvE_EEEEED2Ev
	.cfi_endproc
$LFE7087:
	.size	_ZNSt6thread11_State_implINS_8_InvokerISt5tupleIJZZN8TestCase7runImplIJZN7SeqCst43runEvEUlvE_ZNS5_3runEvEUlvE0_ZNS5_3runEvEUlvE1_ZNS5_3runEvEUlvE2_EEE10TestResultDpT_ENKUlT_E_clIS8_EEDaSD_EUlvE_EEEEED2Ev, .-_ZNSt6thread11_State_implINS_8_InvokerISt5tupleIJZZN8TestCase7runImplIJZN7SeqCst43runEvEUlvE_ZNS5_3runEvEUlvE0_ZNS5_3runEvEUlvE1_ZNS5_3runEvEUlvE2_EEE10TestResultDpT_ENKUlT_E_clIS8_EEDaSD_EUlvE_EEEEED2Ev
	.weak	_ZNSt6thread11_State_implINS_8_InvokerISt5tupleIJZZN8TestCase7runImplIJZN7SeqCst43runEvEUlvE_ZNS5_3runEvEUlvE0_ZNS5_3runEvEUlvE1_ZNS5_3runEvEUlvE2_EEE10TestResultDpT_ENKUlT_E_clIS8_EEDaSD_EUlvE_EEEEED1Ev
	_ZNSt6thread11_State_implINS_8_InvokerISt5tupleIJZZN8TestCase7runImplIJZN7SeqCst43runEvEUlvE_ZNS5_3runEvEUlvE0_ZNS5_3runEvEUlvE1_ZNS5_3runEvEUlvE2_EEE10TestResultDpT_ENKUlT_E_clIS8_EEDaSD_EUlvE_EEEEED1Ev = _ZNSt6thread11_State_implINS_8_InvokerISt5tupleIJZZN8TestCase7runImplIJZN7SeqCst43runEvEUlvE_ZNS5_3runEvEUlvE0_ZNS5_3runEvEUlvE1_ZNS5_3runEvEUlvE2_EEE10TestResultDpT_ENKUlT_E_clIS8_EEDaSD_EUlvE_EEEEED2Ev
	.section	.text._ZNSt6thread11_State_implINS_8_InvokerISt5tupleIJZZN8TestCase7runImplIJZN7SeqCst43runEvEUlvE_ZNS5_3runEvEUlvE0_ZNS5_3runEvEUlvE1_ZNS5_3runEvEUlvE2_EEE10TestResultDpT_ENKUlT_E_clIS8_EEDaSD_EUlvE_EEEEED0Ev,"axG",@progbits,_ZNSt6thread11_State_implINS_8_InvokerISt5tupleIJZZN8TestCase7runImplIJZN7SeqCst43runEvEUlvE_ZNS5_3runEvEUlvE0_ZNS5_3runEvEUlvE1_ZNS5_3runEvEUlvE2_EEE10TestResultDpT_ENKUlT_E_clIS8_EEDaSD_EUlvE_EEEEED5Ev,comdat
	.align	2
	.weak	_ZNSt6thread11_State_implINS_8_InvokerISt5tupleIJZZN8TestCase7runImplIJZN7SeqCst43runEvEUlvE_ZNS5_3runEvEUlvE0_ZNS5_3runEvEUlvE1_ZNS5_3runEvEUlvE2_EEE10TestResultDpT_ENKUlT_E_clIS8_EEDaSD_EUlvE_EEEEED0Ev
$LFB7089 = .
	.cfi_startproc
	.set	nomips16
	.set	nomicromips
	.ent	_ZNSt6thread11_State_implINS_8_InvokerISt5tupleIJZZN8TestCase7runImplIJZN7SeqCst43runEvEUlvE_ZNS5_3runEvEUlvE0_ZNS5_3runEvEUlvE1_ZNS5_3runEvEUlvE2_EEE10TestResultDpT_ENKUlT_E_clIS8_EEDaSD_EUlvE_EEEEED0Ev
	.type	_ZNSt6thread11_State_implINS_8_InvokerISt5tupleIJZZN8TestCase7runImplIJZN7SeqCst43runEvEUlvE_ZNS5_3runEvEUlvE0_ZNS5_3runEvEUlvE1_ZNS5_3runEvEUlvE2_EEE10TestResultDpT_ENKUlT_E_clIS8_EEDaSD_EUlvE_EEEEED0Ev, @function
_ZNSt6thread11_State_implINS_8_InvokerISt5tupleIJZZN8TestCase7runImplIJZN7SeqCst43runEvEUlvE_ZNS5_3runEvEUlvE0_ZNS5_3runEvEUlvE1_ZNS5_3runEvEUlvE2_EEE10TestResultDpT_ENKUlT_E_clIS8_EEDaSD_EUlvE_EEEEED0Ev:
	.frame	$sp,32,$31		# vars= 0, regs= 2/0, args= 16, gp= 8
	.mask	0x80010000,-4
	.fmask	0x00000000,0
	.set	noreorder
	.set	nomacro
	addiu	$sp,$sp,-32
	.cfi_def_cfa_offset 32
	lui	$2,%hi(_ZTVNSt6thread11_State_implINS_8_InvokerISt5tupleIJZZN8TestCase7runImplIJZN7SeqCst43runEvEUlvE_ZNS5_3runEvEUlvE0_ZNS5_3runEvEUlvE1_ZNS5_3runEvEUlvE2_EEE10TestResultDpT_ENKUlT_E_clIS8_EEDaSD_EUlvE_EEEEEE+8)
	addiu	$2,$2,%lo(_ZTVNSt6thread11_State_implINS_8_InvokerISt5tupleIJZZN8TestCase7runImplIJZN7SeqCst43runEvEUlvE_ZNS5_3runEvEUlvE0_ZNS5_3runEvEUlvE1_ZNS5_3runEvEUlvE2_EEE10TestResultDpT_ENKUlT_E_clIS8_EEDaSD_EUlvE_EEEEEE+8)
	sw	$16,24($sp)
	sw	$31,28($sp)
	.cfi_offset 16, -8
	.cfi_offset 31, -4
	move	$16,$4
	jal	_ZNSt6thread6_StateD2Ev
	sw	$2,0($4)

	lw	$31,28($sp)
	move	$4,$16
	lw	$16,24($sp)
	li	$5,20			# 0x14
	.cfi_restore 16
	.cfi_restore 31
	j	_ZdlPvj
	addiu	$sp,$sp,32

	.cfi_def_cfa_offset 0
	.set	macro
	.set	reorder
	.end	_ZNSt6thread11_State_implINS_8_InvokerISt5tupleIJZZN8TestCase7runImplIJZN7SeqCst43runEvEUlvE_ZNS5_3runEvEUlvE0_ZNS5_3runEvEUlvE1_ZNS5_3runEvEUlvE2_EEE10TestResultDpT_ENKUlT_E_clIS8_EEDaSD_EUlvE_EEEEED0Ev
	.cfi_endproc
$LFE7089:
	.size	_ZNSt6thread11_State_implINS_8_InvokerISt5tupleIJZZN8TestCase7runImplIJZN7SeqCst43runEvEUlvE_ZNS5_3runEvEUlvE0_ZNS5_3runEvEUlvE1_ZNS5_3runEvEUlvE2_EEE10TestResultDpT_ENKUlT_E_clIS8_EEDaSD_EUlvE_EEEEED0Ev, .-_ZNSt6thread11_State_implINS_8_InvokerISt5tupleIJZZN8TestCase7runImplIJZN7SeqCst43runEvEUlvE_ZNS5_3runEvEUlvE0_ZNS5_3runEvEUlvE1_ZNS5_3runEvEUlvE2_EEE10TestResultDpT_ENKUlT_E_clIS8_EEDaSD_EUlvE_EEEEED0Ev
	.section	.text._ZNSt6thread11_State_implINS_8_InvokerISt5tupleIJZZN8TestCase7runImplIJZN13SeqCstAcqRel43runEvEUlvE_ZNS5_3runEvEUlvE0_ZNS5_3runEvEUlvE1_ZNS5_3runEvEUlvE2_EEE10TestResultDpT_ENKUlT_E_clIS9_EEDaSD_EUlvE_EEEEED2Ev,"axG",@progbits,_ZNSt6thread11_State_implINS_8_InvokerISt5tupleIJZZN8TestCase7runImplIJZN13SeqCstAcqRel43runEvEUlvE_ZNS5_3runEvEUlvE0_ZNS5_3runEvEUlvE1_ZNS5_3runEvEUlvE2_EEE10TestResultDpT_ENKUlT_E_clIS9_EEDaSD_EUlvE_EEEEED5Ev,comdat
	.align	2
	.weak	_ZNSt6thread11_State_implINS_8_InvokerISt5tupleIJZZN8TestCase7runImplIJZN13SeqCstAcqRel43runEvEUlvE_ZNS5_3runEvEUlvE0_ZNS5_3runEvEUlvE1_ZNS5_3runEvEUlvE2_EEE10TestResultDpT_ENKUlT_E_clIS9_EEDaSD_EUlvE_EEEEED2Ev
$LFB7099 = .
	.cfi_startproc
	.set	nomips16
	.set	nomicromips
	.ent	_ZNSt6thread11_State_implINS_8_InvokerISt5tupleIJZZN8TestCase7runImplIJZN13SeqCstAcqRel43runEvEUlvE_ZNS5_3runEvEUlvE0_ZNS5_3runEvEUlvE1_ZNS5_3runEvEUlvE2_EEE10TestResultDpT_ENKUlT_E_clIS9_EEDaSD_EUlvE_EEEEED2Ev
	.type	_ZNSt6thread11_State_implINS_8_InvokerISt5tupleIJZZN8TestCase7runImplIJZN13SeqCstAcqRel43runEvEUlvE_ZNS5_3runEvEUlvE0_ZNS5_3runEvEUlvE1_ZNS5_3runEvEUlvE2_EEE10TestResultDpT_ENKUlT_E_clIS9_EEDaSD_EUlvE_EEEEED2Ev, @function
_ZNSt6thread11_State_implINS_8_InvokerISt5tupleIJZZN8TestCase7runImplIJZN13SeqCstAcqRel43runEvEUlvE_ZNS5_3runEvEUlvE0_ZNS5_3runEvEUlvE1_ZNS5_3runEvEUlvE2_EEE10TestResultDpT_ENKUlT_E_clIS9_EEDaSD_EUlvE_EEEEED2Ev:
	.frame	$sp,0,$31		# vars= 0, regs= 0/0, args= 0, gp= 0
	.mask	0x00000000,0
	.fmask	0x00000000,0
	.set	noreorder
	.set	nomacro
	lui	$2,%hi(_ZTVNSt6thread11_State_implINS_8_InvokerISt5tupleIJZZN8TestCase7runImplIJZN13SeqCstAcqRel43runEvEUlvE_ZNS5_3runEvEUlvE0_ZNS5_3runEvEUlvE1_ZNS5_3runEvEUlvE2_EEE10TestResultDpT_ENKUlT_E_clIS9_EEDaSD_EUlvE_EEEEEE+8)
	addiu	$2,$2,%lo(_ZTVNSt6thread11_State_implINS_8_InvokerISt5tupleIJZZN8TestCase7runImplIJZN13SeqCstAcqRel43runEvEUlvE_ZNS5_3runEvEUlvE0_ZNS5_3runEvEUlvE1_ZNS5_3runEvEUlvE2_EEE10TestResultDpT_ENKUlT_E_clIS9_EEDaSD_EUlvE_EEEEEE+8)
	j	_ZNSt6thread6_StateD2Ev
	sw	$2,0($4)

	.set	macro
	.set	reorder
	.end	_ZNSt6thread11_State_implINS_8_InvokerISt5tupleIJZZN8TestCase7runImplIJZN13SeqCstAcqRel43runEvEUlvE_ZNS5_3runEvEUlvE0_ZNS5_3runEvEUlvE1_ZNS5_3runEvEUlvE2_EEE10TestResultDpT_ENKUlT_E_clIS9_EEDaSD_EUlvE_EEEEED2Ev
	.cfi_endproc
$LFE7099:
	.size	_ZNSt6thread11_State_implINS_8_InvokerISt5tupleIJZZN8TestCase7runImplIJZN13SeqCstAcqRel43runEvEUlvE_ZNS5_3runEvEUlvE0_ZNS5_3runEvEUlvE1_ZNS5_3runEvEUlvE2_EEE10TestResultDpT_ENKUlT_E_clIS9_EEDaSD_EUlvE_EEEEED2Ev, .-_ZNSt6thread11_State_implINS_8_InvokerISt5tupleIJZZN8TestCase7runImplIJZN13SeqCstAcqRel43runEvEUlvE_ZNS5_3runEvEUlvE0_ZNS5_3runEvEUlvE1_ZNS5_3runEvEUlvE2_EEE10TestResultDpT_ENKUlT_E_clIS9_EEDaSD_EUlvE_EEEEED2Ev
	.weak	_ZNSt6thread11_State_implINS_8_InvokerISt5tupleIJZZN8TestCase7runImplIJZN13SeqCstAcqRel43runEvEUlvE_ZNS5_3runEvEUlvE0_ZNS5_3runEvEUlvE1_ZNS5_3runEvEUlvE2_EEE10TestResultDpT_ENKUlT_E_clIS9_EEDaSD_EUlvE_EEEEED1Ev
	_ZNSt6thread11_State_implINS_8_InvokerISt5tupleIJZZN8TestCase7runImplIJZN13SeqCstAcqRel43runEvEUlvE_ZNS5_3runEvEUlvE0_ZNS5_3runEvEUlvE1_ZNS5_3runEvEUlvE2_EEE10TestResultDpT_ENKUlT_E_clIS9_EEDaSD_EUlvE_EEEEED1Ev = _ZNSt6thread11_State_implINS_8_InvokerISt5tupleIJZZN8TestCase7runImplIJZN13SeqCstAcqRel43runEvEUlvE_ZNS5_3runEvEUlvE0_ZNS5_3runEvEUlvE1_ZNS5_3runEvEUlvE2_EEE10TestResultDpT_ENKUlT_E_clIS9_EEDaSD_EUlvE_EEEEED2Ev
	.section	.text._ZNSt6thread11_State_implINS_8_InvokerISt5tupleIJZZN8TestCase7runImplIJZN13SeqCstAcqRel43runEvEUlvE_ZNS5_3runEvEUlvE0_ZNS5_3runEvEUlvE1_ZNS5_3runEvEUlvE2_EEE10TestResultDpT_ENKUlT_E_clIS9_EEDaSD_EUlvE_EEEEED0Ev,"axG",@progbits,_ZNSt6thread11_State_implINS_8_InvokerISt5tupleIJZZN8TestCase7runImplIJZN13SeqCstAcqRel43runEvEUlvE_ZNS5_3runEvEUlvE0_ZNS5_3runEvEUlvE1_ZNS5_3runEvEUlvE2_EEE10TestResultDpT_ENKUlT_E_clIS9_EEDaSD_EUlvE_EEEEED5Ev,comdat
	.align	2
	.weak	_ZNSt6thread11_State_implINS_8_InvokerISt5tupleIJZZN8TestCase7runImplIJZN13SeqCstAcqRel43runEvEUlvE_ZNS5_3runEvEUlvE0_ZNS5_3runEvEUlvE1_ZNS5_3runEvEUlvE2_EEE10TestResultDpT_ENKUlT_E_clIS9_EEDaSD_EUlvE_EEEEED0Ev
$LFB7101 = .
	.cfi_startproc
	.set	nomips16
	.set	nomicromips
	.ent	_ZNSt6thread11_State_implINS_8_InvokerISt5tupleIJZZN8TestCase7runImplIJZN13SeqCstAcqRel43runEvEUlvE_ZNS5_3runEvEUlvE0_ZNS5_3runEvEUlvE1_ZNS5_3runEvEUlvE2_EEE10TestResultDpT_ENKUlT_E_clIS9_EEDaSD_EUlvE_EEEEED0Ev
	.type	_ZNSt6thread11_State_implINS_8_InvokerISt5tupleIJZZN8TestCase7runImplIJZN13SeqCstAcqRel43runEvEUlvE_ZNS5_3runEvEUlvE0_ZNS5_3runEvEUlvE1_ZNS5_3runEvEUlvE2_EEE10TestResultDpT_ENKUlT_E_clIS9_EEDaSD_EUlvE_EEEEED0Ev, @function
_ZNSt6thread11_State_implINS_8_InvokerISt5tupleIJZZN8TestCase7runImplIJZN13SeqCstAcqRel43runEvEUlvE_ZNS5_3runEvEUlvE0_ZNS5_3runEvEUlvE1_ZNS5_3runEvEUlvE2_EEE10TestResultDpT_ENKUlT_E_clIS9_EEDaSD_EUlvE_EEEEED0Ev:
	.frame	$sp,32,$31		# vars= 0, regs= 2/0, args= 16, gp= 8
	.mask	0x80010000,-4
	.fmask	0x00000000,0
	.set	noreorder
	.set	nomacro
	addiu	$sp,$sp,-32
	.cfi_def_cfa_offset 32
	lui	$2,%hi(_ZTVNSt6thread11_State_implINS_8_InvokerISt5tupleIJZZN8TestCase7runImplIJZN13SeqCstAcqRel43runEvEUlvE_ZNS5_3runEvEUlvE0_ZNS5_3runEvEUlvE1_ZNS5_3runEvEUlvE2_EEE10TestResultDpT_ENKUlT_E_clIS9_EEDaSD_EUlvE_EEEEEE+8)
	addiu	$2,$2,%lo(_ZTVNSt6thread11_State_implINS_8_InvokerISt5tupleIJZZN8TestCase7runImplIJZN13SeqCstAcqRel43runEvEUlvE_ZNS5_3runEvEUlvE0_ZNS5_3runEvEUlvE1_ZNS5_3runEvEUlvE2_EEE10TestResultDpT_ENKUlT_E_clIS9_EEDaSD_EUlvE_EEEEEE+8)
	sw	$16,24($sp)
	sw	$31,28($sp)
	.cfi_offset 16, -8
	.cfi_offset 31, -4
	move	$16,$4
	jal	_ZNSt6thread6_StateD2Ev
	sw	$2,0($4)

	lw	$31,28($sp)
	move	$4,$16
	lw	$16,24($sp)
	li	$5,20			# 0x14
	.cfi_restore 16
	.cfi_restore 31
	j	_ZdlPvj
	addiu	$sp,$sp,32

	.cfi_def_cfa_offset 0
	.set	macro
	.set	reorder
	.end	_ZNSt6thread11_State_implINS_8_InvokerISt5tupleIJZZN8TestCase7runImplIJZN13SeqCstAcqRel43runEvEUlvE_ZNS5_3runEvEUlvE0_ZNS5_3runEvEUlvE1_ZNS5_3runEvEUlvE2_EEE10TestResultDpT_ENKUlT_E_clIS9_EEDaSD_EUlvE_EEEEED0Ev
	.cfi_endproc
$LFE7101:
	.size	_ZNSt6thread11_State_implINS_8_InvokerISt5tupleIJZZN8TestCase7runImplIJZN13SeqCstAcqRel43runEvEUlvE_ZNS5_3runEvEUlvE0_ZNS5_3runEvEUlvE1_ZNS5_3runEvEUlvE2_EEE10TestResultDpT_ENKUlT_E_clIS9_EEDaSD_EUlvE_EEEEED0Ev, .-_ZNSt6thread11_State_implINS_8_InvokerISt5tupleIJZZN8TestCase7runImplIJZN13SeqCstAcqRel43runEvEUlvE_ZNS5_3runEvEUlvE0_ZNS5_3runEvEUlvE1_ZNS5_3runEvEUlvE2_EEE10TestResultDpT_ENKUlT_E_clIS9_EEDaSD_EUlvE_EEEEED0Ev
	.section	.text._ZNSt6thread11_State_implINS_8_InvokerISt5tupleIJZZN8TestCase7runImplIJZN13SeqCstAcqRel43runEvEUlvE_ZNS5_3runEvEUlvE0_ZNS5_3runEvEUlvE1_ZNS5_3runEvEUlvE2_EEE10TestResultDpT_ENKUlT_E_clIS6_EEDaSD_EUlvE_EEEEED2Ev,"axG",@progbits,_ZNSt6thread11_State_implINS_8_InvokerISt5tupleIJZZN8TestCase7runImplIJZN13SeqCstAcqRel43runEvEUlvE_ZNS5_3runEvEUlvE0_ZNS5_3runEvEUlvE1_ZNS5_3runEvEUlvE2_EEE10TestResultDpT_ENKUlT_E_clIS6_EEDaSD_EUlvE_EEEEED5Ev,comdat
	.align	2
	.weak	_ZNSt6thread11_State_implINS_8_InvokerISt5tupleIJZZN8TestCase7runImplIJZN13SeqCstAcqRel43runEvEUlvE_ZNS5_3runEvEUlvE0_ZNS5_3runEvEUlvE1_ZNS5_3runEvEUlvE2_EEE10TestResultDpT_ENKUlT_E_clIS6_EEDaSD_EUlvE_EEEEED2Ev
$LFB7111 = .
	.cfi_startproc
	.set	nomips16
	.set	nomicromips
	.ent	_ZNSt6thread11_State_implINS_8_InvokerISt5tupleIJZZN8TestCase7runImplIJZN13SeqCstAcqRel43runEvEUlvE_ZNS5_3runEvEUlvE0_ZNS5_3runEvEUlvE1_ZNS5_3runEvEUlvE2_EEE10TestResultDpT_ENKUlT_E_clIS6_EEDaSD_EUlvE_EEEEED2Ev
	.type	_ZNSt6thread11_State_implINS_8_InvokerISt5tupleIJZZN8TestCase7runImplIJZN13SeqCstAcqRel43runEvEUlvE_ZNS5_3runEvEUlvE0_ZNS5_3runEvEUlvE1_ZNS5_3runEvEUlvE2_EEE10TestResultDpT_ENKUlT_E_clIS6_EEDaSD_EUlvE_EEEEED2Ev, @function
_ZNSt6thread11_State_implINS_8_InvokerISt5tupleIJZZN8TestCase7runImplIJZN13SeqCstAcqRel43runEvEUlvE_ZNS5_3runEvEUlvE0_ZNS5_3runEvEUlvE1_ZNS5_3runEvEUlvE2_EEE10TestResultDpT_ENKUlT_E_clIS6_EEDaSD_EUlvE_EEEEED2Ev:
	.frame	$sp,0,$31		# vars= 0, regs= 0/0, args= 0, gp= 0
	.mask	0x00000000,0
	.fmask	0x00000000,0
	.set	noreorder
	.set	nomacro
	lui	$2,%hi(_ZTVNSt6thread11_State_implINS_8_InvokerISt5tupleIJZZN8TestCase7runImplIJZN13SeqCstAcqRel43runEvEUlvE_ZNS5_3runEvEUlvE0_ZNS5_3runEvEUlvE1_ZNS5_3runEvEUlvE2_EEE10TestResultDpT_ENKUlT_E_clIS6_EEDaSD_EUlvE_EEEEEE+8)
	addiu	$2,$2,%lo(_ZTVNSt6thread11_State_implINS_8_InvokerISt5tupleIJZZN8TestCase7runImplIJZN13SeqCstAcqRel43runEvEUlvE_ZNS5_3runEvEUlvE0_ZNS5_3runEvEUlvE1_ZNS5_3runEvEUlvE2_EEE10TestResultDpT_ENKUlT_E_clIS6_EEDaSD_EUlvE_EEEEEE+8)
	j	_ZNSt6thread6_StateD2Ev
	sw	$2,0($4)

	.set	macro
	.set	reorder
	.end	_ZNSt6thread11_State_implINS_8_InvokerISt5tupleIJZZN8TestCase7runImplIJZN13SeqCstAcqRel43runEvEUlvE_ZNS5_3runEvEUlvE0_ZNS5_3runEvEUlvE1_ZNS5_3runEvEUlvE2_EEE10TestResultDpT_ENKUlT_E_clIS6_EEDaSD_EUlvE_EEEEED2Ev
	.cfi_endproc
$LFE7111:
	.size	_ZNSt6thread11_State_implINS_8_InvokerISt5tupleIJZZN8TestCase7runImplIJZN13SeqCstAcqRel43runEvEUlvE_ZNS5_3runEvEUlvE0_ZNS5_3runEvEUlvE1_ZNS5_3runEvEUlvE2_EEE10TestResultDpT_ENKUlT_E_clIS6_EEDaSD_EUlvE_EEEEED2Ev, .-_ZNSt6thread11_State_implINS_8_InvokerISt5tupleIJZZN8TestCase7runImplIJZN13SeqCstAcqRel43runEvEUlvE_ZNS5_3runEvEUlvE0_ZNS5_3runEvEUlvE1_ZNS5_3runEvEUlvE2_EEE10TestResultDpT_ENKUlT_E_clIS6_EEDaSD_EUlvE_EEEEED2Ev
	.weak	_ZNSt6thread11_State_implINS_8_InvokerISt5tupleIJZZN8TestCase7runImplIJZN13SeqCstAcqRel43runEvEUlvE_ZNS5_3runEvEUlvE0_ZNS5_3runEvEUlvE1_ZNS5_3runEvEUlvE2_EEE10TestResultDpT_ENKUlT_E_clIS6_EEDaSD_EUlvE_EEEEED1Ev
	_ZNSt6thread11_State_implINS_8_InvokerISt5tupleIJZZN8TestCase7runImplIJZN13SeqCstAcqRel43runEvEUlvE_ZNS5_3runEvEUlvE0_ZNS5_3runEvEUlvE1_ZNS5_3runEvEUlvE2_EEE10TestResultDpT_ENKUlT_E_clIS6_EEDaSD_EUlvE_EEEEED1Ev = _ZNSt6thread11_State_implINS_8_InvokerISt5tupleIJZZN8TestCase7runImplIJZN13SeqCstAcqRel43runEvEUlvE_ZNS5_3runEvEUlvE0_ZNS5_3runEvEUlvE1_ZNS5_3runEvEUlvE2_EEE10TestResultDpT_ENKUlT_E_clIS6_EEDaSD_EUlvE_EEEEED2Ev
	.section	.text._ZNSt6thread11_State_implINS_8_InvokerISt5tupleIJZZN8TestCase7runImplIJZN13SeqCstAcqRel43runEvEUlvE_ZNS5_3runEvEUlvE0_ZNS5_3runEvEUlvE1_ZNS5_3runEvEUlvE2_EEE10TestResultDpT_ENKUlT_E_clIS6_EEDaSD_EUlvE_EEEEED0Ev,"axG",@progbits,_ZNSt6thread11_State_implINS_8_InvokerISt5tupleIJZZN8TestCase7runImplIJZN13SeqCstAcqRel43runEvEUlvE_ZNS5_3runEvEUlvE0_ZNS5_3runEvEUlvE1_ZNS5_3runEvEUlvE2_EEE10TestResultDpT_ENKUlT_E_clIS6_EEDaSD_EUlvE_EEEEED5Ev,comdat
	.align	2
	.weak	_ZNSt6thread11_State_implINS_8_InvokerISt5tupleIJZZN8TestCase7runImplIJZN13SeqCstAcqRel43runEvEUlvE_ZNS5_3runEvEUlvE0_ZNS5_3runEvEUlvE1_ZNS5_3runEvEUlvE2_EEE10TestResultDpT_ENKUlT_E_clIS6_EEDaSD_EUlvE_EEEEED0Ev
$LFB7113 = .
	.cfi_startproc
	.set	nomips16
	.set	nomicromips
	.ent	_ZNSt6thread11_State_implINS_8_InvokerISt5tupleIJZZN8TestCase7runImplIJZN13SeqCstAcqRel43runEvEUlvE_ZNS5_3runEvEUlvE0_ZNS5_3runEvEUlvE1_ZNS5_3runEvEUlvE2_EEE10TestResultDpT_ENKUlT_E_clIS6_EEDaSD_EUlvE_EEEEED0Ev
	.type	_ZNSt6thread11_State_implINS_8_InvokerISt5tupleIJZZN8TestCase7runImplIJZN13SeqCstAcqRel43runEvEUlvE_ZNS5_3runEvEUlvE0_ZNS5_3runEvEUlvE1_ZNS5_3runEvEUlvE2_EEE10TestResultDpT_ENKUlT_E_clIS6_EEDaSD_EUlvE_EEEEED0Ev, @function
_ZNSt6thread11_State_implINS_8_InvokerISt5tupleIJZZN8TestCase7runImplIJZN13SeqCstAcqRel43runEvEUlvE_ZNS5_3runEvEUlvE0_ZNS5_3runEvEUlvE1_ZNS5_3runEvEUlvE2_EEE10TestResultDpT_ENKUlT_E_clIS6_EEDaSD_EUlvE_EEEEED0Ev:
	.frame	$sp,32,$31		# vars= 0, regs= 2/0, args= 16, gp= 8
	.mask	0x80010000,-4
	.fmask	0x00000000,0
	.set	noreorder
	.set	nomacro
	addiu	$sp,$sp,-32
	.cfi_def_cfa_offset 32
	lui	$2,%hi(_ZTVNSt6thread11_State_implINS_8_InvokerISt5tupleIJZZN8TestCase7runImplIJZN13SeqCstAcqRel43runEvEUlvE_ZNS5_3runEvEUlvE0_ZNS5_3runEvEUlvE1_ZNS5_3runEvEUlvE2_EEE10TestResultDpT_ENKUlT_E_clIS6_EEDaSD_EUlvE_EEEEEE+8)
	addiu	$2,$2,%lo(_ZTVNSt6thread11_State_implINS_8_InvokerISt5tupleIJZZN8TestCase7runImplIJZN13SeqCstAcqRel43runEvEUlvE_ZNS5_3runEvEUlvE0_ZNS5_3runEvEUlvE1_ZNS5_3runEvEUlvE2_EEE10TestResultDpT_ENKUlT_E_clIS6_EEDaSD_EUlvE_EEEEEE+8)
	sw	$16,24($sp)
	sw	$31,28($sp)
	.cfi_offset 16, -8
	.cfi_offset 31, -4
	move	$16,$4
	jal	_ZNSt6thread6_StateD2Ev
	sw	$2,0($4)

	lw	$31,28($sp)
	move	$4,$16
	lw	$16,24($sp)
	li	$5,20			# 0x14
	.cfi_restore 16
	.cfi_restore 31
	j	_ZdlPvj
	addiu	$sp,$sp,32

	.cfi_def_cfa_offset 0
	.set	macro
	.set	reorder
	.end	_ZNSt6thread11_State_implINS_8_InvokerISt5tupleIJZZN8TestCase7runImplIJZN13SeqCstAcqRel43runEvEUlvE_ZNS5_3runEvEUlvE0_ZNS5_3runEvEUlvE1_ZNS5_3runEvEUlvE2_EEE10TestResultDpT_ENKUlT_E_clIS6_EEDaSD_EUlvE_EEEEED0Ev
	.cfi_endproc
$LFE7113:
	.size	_ZNSt6thread11_State_implINS_8_InvokerISt5tupleIJZZN8TestCase7runImplIJZN13SeqCstAcqRel43runEvEUlvE_ZNS5_3runEvEUlvE0_ZNS5_3runEvEUlvE1_ZNS5_3runEvEUlvE2_EEE10TestResultDpT_ENKUlT_E_clIS6_EEDaSD_EUlvE_EEEEED0Ev, .-_ZNSt6thread11_State_implINS_8_InvokerISt5tupleIJZZN8TestCase7runImplIJZN13SeqCstAcqRel43runEvEUlvE_ZNS5_3runEvEUlvE0_ZNS5_3runEvEUlvE1_ZNS5_3runEvEUlvE2_EEE10TestResultDpT_ENKUlT_E_clIS6_EEDaSD_EUlvE_EEEEED0Ev
	.section	.text._ZNSt6thread11_State_implINS_8_InvokerISt5tupleIJZZN8TestCase7runImplIJZN13SeqCstAcqRel43runEvEUlvE_ZNS5_3runEvEUlvE0_ZNS5_3runEvEUlvE1_ZNS5_3runEvEUlvE2_EEE10TestResultDpT_ENKUlT_E_clIS7_EEDaSD_EUlvE_EEEEED2Ev,"axG",@progbits,_ZNSt6thread11_State_implINS_8_InvokerISt5tupleIJZZN8TestCase7runImplIJZN13SeqCstAcqRel43runEvEUlvE_ZNS5_3runEvEUlvE0_ZNS5_3runEvEUlvE1_ZNS5_3runEvEUlvE2_EEE10TestResultDpT_ENKUlT_E_clIS7_EEDaSD_EUlvE_EEEEED5Ev,comdat
	.align	2
	.weak	_ZNSt6thread11_State_implINS_8_InvokerISt5tupleIJZZN8TestCase7runImplIJZN13SeqCstAcqRel43runEvEUlvE_ZNS5_3runEvEUlvE0_ZNS5_3runEvEUlvE1_ZNS5_3runEvEUlvE2_EEE10TestResultDpT_ENKUlT_E_clIS7_EEDaSD_EUlvE_EEEEED2Ev
$LFB7107 = .
	.cfi_startproc
	.set	nomips16
	.set	nomicromips
	.ent	_ZNSt6thread11_State_implINS_8_InvokerISt5tupleIJZZN8TestCase7runImplIJZN13SeqCstAcqRel43runEvEUlvE_ZNS5_3runEvEUlvE0_ZNS5_3runEvEUlvE1_ZNS5_3runEvEUlvE2_EEE10TestResultDpT_ENKUlT_E_clIS7_EEDaSD_EUlvE_EEEEED2Ev
	.type	_ZNSt6thread11_State_implINS_8_InvokerISt5tupleIJZZN8TestCase7runImplIJZN13SeqCstAcqRel43runEvEUlvE_ZNS5_3runEvEUlvE0_ZNS5_3runEvEUlvE1_ZNS5_3runEvEUlvE2_EEE10TestResultDpT_ENKUlT_E_clIS7_EEDaSD_EUlvE_EEEEED2Ev, @function
_ZNSt6thread11_State_implINS_8_InvokerISt5tupleIJZZN8TestCase7runImplIJZN13SeqCstAcqRel43runEvEUlvE_ZNS5_3runEvEUlvE0_ZNS5_3runEvEUlvE1_ZNS5_3runEvEUlvE2_EEE10TestResultDpT_ENKUlT_E_clIS7_EEDaSD_EUlvE_EEEEED2Ev:
	.frame	$sp,0,$31		# vars= 0, regs= 0/0, args= 0, gp= 0
	.mask	0x00000000,0
	.fmask	0x00000000,0
	.set	noreorder
	.set	nomacro
	lui	$2,%hi(_ZTVNSt6thread11_State_implINS_8_InvokerISt5tupleIJZZN8TestCase7runImplIJZN13SeqCstAcqRel43runEvEUlvE_ZNS5_3runEvEUlvE0_ZNS5_3runEvEUlvE1_ZNS5_3runEvEUlvE2_EEE10TestResultDpT_ENKUlT_E_clIS7_EEDaSD_EUlvE_EEEEEE+8)
	addiu	$2,$2,%lo(_ZTVNSt6thread11_State_implINS_8_InvokerISt5tupleIJZZN8TestCase7runImplIJZN13SeqCstAcqRel43runEvEUlvE_ZNS5_3runEvEUlvE0_ZNS5_3runEvEUlvE1_ZNS5_3runEvEUlvE2_EEE10TestResultDpT_ENKUlT_E_clIS7_EEDaSD_EUlvE_EEEEEE+8)
	j	_ZNSt6thread6_StateD2Ev
	sw	$2,0($4)

	.set	macro
	.set	reorder
	.end	_ZNSt6thread11_State_implINS_8_InvokerISt5tupleIJZZN8TestCase7runImplIJZN13SeqCstAcqRel43runEvEUlvE_ZNS5_3runEvEUlvE0_ZNS5_3runEvEUlvE1_ZNS5_3runEvEUlvE2_EEE10TestResultDpT_ENKUlT_E_clIS7_EEDaSD_EUlvE_EEEEED2Ev
	.cfi_endproc
$LFE7107:
	.size	_ZNSt6thread11_State_implINS_8_InvokerISt5tupleIJZZN8TestCase7runImplIJZN13SeqCstAcqRel43runEvEUlvE_ZNS5_3runEvEUlvE0_ZNS5_3runEvEUlvE1_ZNS5_3runEvEUlvE2_EEE10TestResultDpT_ENKUlT_E_clIS7_EEDaSD_EUlvE_EEEEED2Ev, .-_ZNSt6thread11_State_implINS_8_InvokerISt5tupleIJZZN8TestCase7runImplIJZN13SeqCstAcqRel43runEvEUlvE_ZNS5_3runEvEUlvE0_ZNS5_3runEvEUlvE1_ZNS5_3runEvEUlvE2_EEE10TestResultDpT_ENKUlT_E_clIS7_EEDaSD_EUlvE_EEEEED2Ev
	.weak	_ZNSt6thread11_State_implINS_8_InvokerISt5tupleIJZZN8TestCase7runImplIJZN13SeqCstAcqRel43runEvEUlvE_ZNS5_3runEvEUlvE0_ZNS5_3runEvEUlvE1_ZNS5_3runEvEUlvE2_EEE10TestResultDpT_ENKUlT_E_clIS7_EEDaSD_EUlvE_EEEEED1Ev
	_ZNSt6thread11_State_implINS_8_InvokerISt5tupleIJZZN8TestCase7runImplIJZN13SeqCstAcqRel43runEvEUlvE_ZNS5_3runEvEUlvE0_ZNS5_3runEvEUlvE1_ZNS5_3runEvEUlvE2_EEE10TestResultDpT_ENKUlT_E_clIS7_EEDaSD_EUlvE_EEEEED1Ev = _ZNSt6thread11_State_implINS_8_InvokerISt5tupleIJZZN8TestCase7runImplIJZN13SeqCstAcqRel43runEvEUlvE_ZNS5_3runEvEUlvE0_ZNS5_3runEvEUlvE1_ZNS5_3runEvEUlvE2_EEE10TestResultDpT_ENKUlT_E_clIS7_EEDaSD_EUlvE_EEEEED2Ev
	.section	.text._ZNSt6thread11_State_implINS_8_InvokerISt5tupleIJZZN8TestCase7runImplIJZN13SeqCstAcqRel43runEvEUlvE_ZNS5_3runEvEUlvE0_ZNS5_3runEvEUlvE1_ZNS5_3runEvEUlvE2_EEE10TestResultDpT_ENKUlT_E_clIS7_EEDaSD_EUlvE_EEEEED0Ev,"axG",@progbits,_ZNSt6thread11_State_implINS_8_InvokerISt5tupleIJZZN8TestCase7runImplIJZN13SeqCstAcqRel43runEvEUlvE_ZNS5_3runEvEUlvE0_ZNS5_3runEvEUlvE1_ZNS5_3runEvEUlvE2_EEE10TestResultDpT_ENKUlT_E_clIS7_EEDaSD_EUlvE_EEEEED5Ev,comdat
	.align	2
	.weak	_ZNSt6thread11_State_implINS_8_InvokerISt5tupleIJZZN8TestCase7runImplIJZN13SeqCstAcqRel43runEvEUlvE_ZNS5_3runEvEUlvE0_ZNS5_3runEvEUlvE1_ZNS5_3runEvEUlvE2_EEE10TestResultDpT_ENKUlT_E_clIS7_EEDaSD_EUlvE_EEEEED0Ev
$LFB7109 = .
	.cfi_startproc
	.set	nomips16
	.set	nomicromips
	.ent	_ZNSt6thread11_State_implINS_8_InvokerISt5tupleIJZZN8TestCase7runImplIJZN13SeqCstAcqRel43runEvEUlvE_ZNS5_3runEvEUlvE0_ZNS5_3runEvEUlvE1_ZNS5_3runEvEUlvE2_EEE10TestResultDpT_ENKUlT_E_clIS7_EEDaSD_EUlvE_EEEEED0Ev
	.type	_ZNSt6thread11_State_implINS_8_InvokerISt5tupleIJZZN8TestCase7runImplIJZN13SeqCstAcqRel43runEvEUlvE_ZNS5_3runEvEUlvE0_ZNS5_3runEvEUlvE1_ZNS5_3runEvEUlvE2_EEE10TestResultDpT_ENKUlT_E_clIS7_EEDaSD_EUlvE_EEEEED0Ev, @function
_ZNSt6thread11_State_implINS_8_InvokerISt5tupleIJZZN8TestCase7runImplIJZN13SeqCstAcqRel43runEvEUlvE_ZNS5_3runEvEUlvE0_ZNS5_3runEvEUlvE1_ZNS5_3runEvEUlvE2_EEE10TestResultDpT_ENKUlT_E_clIS7_EEDaSD_EUlvE_EEEEED0Ev:
	.frame	$sp,32,$31		# vars= 0, regs= 2/0, args= 16, gp= 8
	.mask	0x80010000,-4
	.fmask	0x00000000,0
	.set	noreorder
	.set	nomacro
	addiu	$sp,$sp,-32
	.cfi_def_cfa_offset 32
	lui	$2,%hi(_ZTVNSt6thread11_State_implINS_8_InvokerISt5tupleIJZZN8TestCase7runImplIJZN13SeqCstAcqRel43runEvEUlvE_ZNS5_3runEvEUlvE0_ZNS5_3runEvEUlvE1_ZNS5_3runEvEUlvE2_EEE10TestResultDpT_ENKUlT_E_clIS7_EEDaSD_EUlvE_EEEEEE+8)
	addiu	$2,$2,%lo(_ZTVNSt6thread11_State_implINS_8_InvokerISt5tupleIJZZN8TestCase7runImplIJZN13SeqCstAcqRel43runEvEUlvE_ZNS5_3runEvEUlvE0_ZNS5_3runEvEUlvE1_ZNS5_3runEvEUlvE2_EEE10TestResultDpT_ENKUlT_E_clIS7_EEDaSD_EUlvE_EEEEEE+8)
	sw	$16,24($sp)
	sw	$31,28($sp)
	.cfi_offset 16, -8
	.cfi_offset 31, -4
	move	$16,$4
	jal	_ZNSt6thread6_StateD2Ev
	sw	$2,0($4)

	lw	$31,28($sp)
	move	$4,$16
	lw	$16,24($sp)
	li	$5,20			# 0x14
	.cfi_restore 16
	.cfi_restore 31
	j	_ZdlPvj
	addiu	$sp,$sp,32

	.cfi_def_cfa_offset 0
	.set	macro
	.set	reorder
	.end	_ZNSt6thread11_State_implINS_8_InvokerISt5tupleIJZZN8TestCase7runImplIJZN13SeqCstAcqRel43runEvEUlvE_ZNS5_3runEvEUlvE0_ZNS5_3runEvEUlvE1_ZNS5_3runEvEUlvE2_EEE10TestResultDpT_ENKUlT_E_clIS7_EEDaSD_EUlvE_EEEEED0Ev
	.cfi_endproc
$LFE7109:
	.size	_ZNSt6thread11_State_implINS_8_InvokerISt5tupleIJZZN8TestCase7runImplIJZN13SeqCstAcqRel43runEvEUlvE_ZNS5_3runEvEUlvE0_ZNS5_3runEvEUlvE1_ZNS5_3runEvEUlvE2_EEE10TestResultDpT_ENKUlT_E_clIS7_EEDaSD_EUlvE_EEEEED0Ev, .-_ZNSt6thread11_State_implINS_8_InvokerISt5tupleIJZZN8TestCase7runImplIJZN13SeqCstAcqRel43runEvEUlvE_ZNS5_3runEvEUlvE0_ZNS5_3runEvEUlvE1_ZNS5_3runEvEUlvE2_EEE10TestResultDpT_ENKUlT_E_clIS7_EEDaSD_EUlvE_EEEEED0Ev
	.section	.text._ZNSt6thread11_State_implINS_8_InvokerISt5tupleIJZZN8TestCase7runImplIJZN13SeqCstAcqRel43runEvEUlvE_ZNS5_3runEvEUlvE0_ZNS5_3runEvEUlvE1_ZNS5_3runEvEUlvE2_EEE10TestResultDpT_ENKUlT_E_clIS8_EEDaSD_EUlvE_EEEEED2Ev,"axG",@progbits,_ZNSt6thread11_State_implINS_8_InvokerISt5tupleIJZZN8TestCase7runImplIJZN13SeqCstAcqRel43runEvEUlvE_ZNS5_3runEvEUlvE0_ZNS5_3runEvEUlvE1_ZNS5_3runEvEUlvE2_EEE10TestResultDpT_ENKUlT_E_clIS8_EEDaSD_EUlvE_EEEEED5Ev,comdat
	.align	2
	.weak	_ZNSt6thread11_State_implINS_8_InvokerISt5tupleIJZZN8TestCase7runImplIJZN13SeqCstAcqRel43runEvEUlvE_ZNS5_3runEvEUlvE0_ZNS5_3runEvEUlvE1_ZNS5_3runEvEUlvE2_EEE10TestResultDpT_ENKUlT_E_clIS8_EEDaSD_EUlvE_EEEEED2Ev
$LFB7103 = .
	.cfi_startproc
	.set	nomips16
	.set	nomicromips
	.ent	_ZNSt6thread11_State_implINS_8_InvokerISt5tupleIJZZN8TestCase7runImplIJZN13SeqCstAcqRel43runEvEUlvE_ZNS5_3runEvEUlvE0_ZNS5_3runEvEUlvE1_ZNS5_3runEvEUlvE2_EEE10TestResultDpT_ENKUlT_E_clIS8_EEDaSD_EUlvE_EEEEED2Ev
	.type	_ZNSt6thread11_State_implINS_8_InvokerISt5tupleIJZZN8TestCase7runImplIJZN13SeqCstAcqRel43runEvEUlvE_ZNS5_3runEvEUlvE0_ZNS5_3runEvEUlvE1_ZNS5_3runEvEUlvE2_EEE10TestResultDpT_ENKUlT_E_clIS8_EEDaSD_EUlvE_EEEEED2Ev, @function
_ZNSt6thread11_State_implINS_8_InvokerISt5tupleIJZZN8TestCase7runImplIJZN13SeqCstAcqRel43runEvEUlvE_ZNS5_3runEvEUlvE0_ZNS5_3runEvEUlvE1_ZNS5_3runEvEUlvE2_EEE10TestResultDpT_ENKUlT_E_clIS8_EEDaSD_EUlvE_EEEEED2Ev:
	.frame	$sp,0,$31		# vars= 0, regs= 0/0, args= 0, gp= 0
	.mask	0x00000000,0
	.fmask	0x00000000,0
	.set	noreorder
	.set	nomacro
	lui	$2,%hi(_ZTVNSt6thread11_State_implINS_8_InvokerISt5tupleIJZZN8TestCase7runImplIJZN13SeqCstAcqRel43runEvEUlvE_ZNS5_3runEvEUlvE0_ZNS5_3runEvEUlvE1_ZNS5_3runEvEUlvE2_EEE10TestResultDpT_ENKUlT_E_clIS8_EEDaSD_EUlvE_EEEEEE+8)
	addiu	$2,$2,%lo(_ZTVNSt6thread11_State_implINS_8_InvokerISt5tupleIJZZN8TestCase7runImplIJZN13SeqCstAcqRel43runEvEUlvE_ZNS5_3runEvEUlvE0_ZNS5_3runEvEUlvE1_ZNS5_3runEvEUlvE2_EEE10TestResultDpT_ENKUlT_E_clIS8_EEDaSD_EUlvE_EEEEEE+8)
	j	_ZNSt6thread6_StateD2Ev
	sw	$2,0($4)

	.set	macro
	.set	reorder
	.end	_ZNSt6thread11_State_implINS_8_InvokerISt5tupleIJZZN8TestCase7runImplIJZN13SeqCstAcqRel43runEvEUlvE_ZNS5_3runEvEUlvE0_ZNS5_3runEvEUlvE1_ZNS5_3runEvEUlvE2_EEE10TestResultDpT_ENKUlT_E_clIS8_EEDaSD_EUlvE_EEEEED2Ev
	.cfi_endproc
$LFE7103:
	.size	_ZNSt6thread11_State_implINS_8_InvokerISt5tupleIJZZN8TestCase7runImplIJZN13SeqCstAcqRel43runEvEUlvE_ZNS5_3runEvEUlvE0_ZNS5_3runEvEUlvE1_ZNS5_3runEvEUlvE2_EEE10TestResultDpT_ENKUlT_E_clIS8_EEDaSD_EUlvE_EEEEED2Ev, .-_ZNSt6thread11_State_implINS_8_InvokerISt5tupleIJZZN8TestCase7runImplIJZN13SeqCstAcqRel43runEvEUlvE_ZNS5_3runEvEUlvE0_ZNS5_3runEvEUlvE1_ZNS5_3runEvEUlvE2_EEE10TestResultDpT_ENKUlT_E_clIS8_EEDaSD_EUlvE_EEEEED2Ev
	.weak	_ZNSt6thread11_State_implINS_8_InvokerISt5tupleIJZZN8TestCase7runImplIJZN13SeqCstAcqRel43runEvEUlvE_ZNS5_3runEvEUlvE0_ZNS5_3runEvEUlvE1_ZNS5_3runEvEUlvE2_EEE10TestResultDpT_ENKUlT_E_clIS8_EEDaSD_EUlvE_EEEEED1Ev
	_ZNSt6thread11_State_implINS_8_InvokerISt5tupleIJZZN8TestCase7runImplIJZN13SeqCstAcqRel43runEvEUlvE_ZNS5_3runEvEUlvE0_ZNS5_3runEvEUlvE1_ZNS5_3runEvEUlvE2_EEE10TestResultDpT_ENKUlT_E_clIS8_EEDaSD_EUlvE_EEEEED1Ev = _ZNSt6thread11_State_implINS_8_InvokerISt5tupleIJZZN8TestCase7runImplIJZN13SeqCstAcqRel43runEvEUlvE_ZNS5_3runEvEUlvE0_ZNS5_3runEvEUlvE1_ZNS5_3runEvEUlvE2_EEE10TestResultDpT_ENKUlT_E_clIS8_EEDaSD_EUlvE_EEEEED2Ev
	.section	.text._ZNSt6thread11_State_implINS_8_InvokerISt5tupleIJZZN8TestCase7runImplIJZN13SeqCstAcqRel43runEvEUlvE_ZNS5_3runEvEUlvE0_ZNS5_3runEvEUlvE1_ZNS5_3runEvEUlvE2_EEE10TestResultDpT_ENKUlT_E_clIS8_EEDaSD_EUlvE_EEEEED0Ev,"axG",@progbits,_ZNSt6thread11_State_implINS_8_InvokerISt5tupleIJZZN8TestCase7runImplIJZN13SeqCstAcqRel43runEvEUlvE_ZNS5_3runEvEUlvE0_ZNS5_3runEvEUlvE1_ZNS5_3runEvEUlvE2_EEE10TestResultDpT_ENKUlT_E_clIS8_EEDaSD_EUlvE_EEEEED5Ev,comdat
	.align	2
	.weak	_ZNSt6thread11_State_implINS_8_InvokerISt5tupleIJZZN8TestCase7runImplIJZN13SeqCstAcqRel43runEvEUlvE_ZNS5_3runEvEUlvE0_ZNS5_3runEvEUlvE1_ZNS5_3runEvEUlvE2_EEE10TestResultDpT_ENKUlT_E_clIS8_EEDaSD_EUlvE_EEEEED0Ev
$LFB7105 = .
	.cfi_startproc
	.set	nomips16
	.set	nomicromips
	.ent	_ZNSt6thread11_State_implINS_8_InvokerISt5tupleIJZZN8TestCase7runImplIJZN13SeqCstAcqRel43runEvEUlvE_ZNS5_3runEvEUlvE0_ZNS5_3runEvEUlvE1_ZNS5_3runEvEUlvE2_EEE10TestResultDpT_ENKUlT_E_clIS8_EEDaSD_EUlvE_EEEEED0Ev
	.type	_ZNSt6thread11_State_implINS_8_InvokerISt5tupleIJZZN8TestCase7runImplIJZN13SeqCstAcqRel43runEvEUlvE_ZNS5_3runEvEUlvE0_ZNS5_3runEvEUlvE1_ZNS5_3runEvEUlvE2_EEE10TestResultDpT_ENKUlT_E_clIS8_EEDaSD_EUlvE_EEEEED0Ev, @function
_ZNSt6thread11_State_implINS_8_InvokerISt5tupleIJZZN8TestCase7runImplIJZN13SeqCstAcqRel43runEvEUlvE_ZNS5_3runEvEUlvE0_ZNS5_3runEvEUlvE1_ZNS5_3runEvEUlvE2_EEE10TestResultDpT_ENKUlT_E_clIS8_EEDaSD_EUlvE_EEEEED0Ev:
	.frame	$sp,32,$31		# vars= 0, regs= 2/0, args= 16, gp= 8
	.mask	0x80010000,-4
	.fmask	0x00000000,0
	.set	noreorder
	.set	nomacro
	addiu	$sp,$sp,-32
	.cfi_def_cfa_offset 32
	lui	$2,%hi(_ZTVNSt6thread11_State_implINS_8_InvokerISt5tupleIJZZN8TestCase7runImplIJZN13SeqCstAcqRel43runEvEUlvE_ZNS5_3runEvEUlvE0_ZNS5_3runEvEUlvE1_ZNS5_3runEvEUlvE2_EEE10TestResultDpT_ENKUlT_E_clIS8_EEDaSD_EUlvE_EEEEEE+8)
	addiu	$2,$2,%lo(_ZTVNSt6thread11_State_implINS_8_InvokerISt5tupleIJZZN8TestCase7runImplIJZN13SeqCstAcqRel43runEvEUlvE_ZNS5_3runEvEUlvE0_ZNS5_3runEvEUlvE1_ZNS5_3runEvEUlvE2_EEE10TestResultDpT_ENKUlT_E_clIS8_EEDaSD_EUlvE_EEEEEE+8)
	sw	$16,24($sp)
	sw	$31,28($sp)
	.cfi_offset 16, -8
	.cfi_offset 31, -4
	move	$16,$4
	jal	_ZNSt6thread6_StateD2Ev
	sw	$2,0($4)

	lw	$31,28($sp)
	move	$4,$16
	lw	$16,24($sp)
	li	$5,20			# 0x14
	.cfi_restore 16
	.cfi_restore 31
	j	_ZdlPvj
	addiu	$sp,$sp,32

	.cfi_def_cfa_offset 0
	.set	macro
	.set	reorder
	.end	_ZNSt6thread11_State_implINS_8_InvokerISt5tupleIJZZN8TestCase7runImplIJZN13SeqCstAcqRel43runEvEUlvE_ZNS5_3runEvEUlvE0_ZNS5_3runEvEUlvE1_ZNS5_3runEvEUlvE2_EEE10TestResultDpT_ENKUlT_E_clIS8_EEDaSD_EUlvE_EEEEED0Ev
	.cfi_endproc
$LFE7105:
	.size	_ZNSt6thread11_State_implINS_8_InvokerISt5tupleIJZZN8TestCase7runImplIJZN13SeqCstAcqRel43runEvEUlvE_ZNS5_3runEvEUlvE0_ZNS5_3runEvEUlvE1_ZNS5_3runEvEUlvE2_EEE10TestResultDpT_ENKUlT_E_clIS8_EEDaSD_EUlvE_EEEEED0Ev, .-_ZNSt6thread11_State_implINS_8_InvokerISt5tupleIJZZN8TestCase7runImplIJZN13SeqCstAcqRel43runEvEUlvE_ZNS5_3runEvEUlvE0_ZNS5_3runEvEUlvE1_ZNS5_3runEvEUlvE2_EEE10TestResultDpT_ENKUlT_E_clIS8_EEDaSD_EUlvE_EEEEED0Ev
	.section	.text._ZNSt6thread11_State_implINS_8_InvokerISt5tupleIJZZN8TestCase7runImplIJZN13SpinUseSeqCst3runEvEUlvE_ZNS5_3runEvEUlvE0_EEE10TestResultDpT_ENKUlT_E_clIS7_EEDaSB_EUlvE_EEEEED2Ev,"axG",@progbits,_ZNSt6thread11_State_implINS_8_InvokerISt5tupleIJZZN8TestCase7runImplIJZN13SpinUseSeqCst3runEvEUlvE_ZNS5_3runEvEUlvE0_EEE10TestResultDpT_ENKUlT_E_clIS7_EEDaSB_EUlvE_EEEEED5Ev,comdat
	.align	2
	.weak	_ZNSt6thread11_State_implINS_8_InvokerISt5tupleIJZZN8TestCase7runImplIJZN13SpinUseSeqCst3runEvEUlvE_ZNS5_3runEvEUlvE0_EEE10TestResultDpT_ENKUlT_E_clIS7_EEDaSB_EUlvE_EEEEED2Ev
$LFB7115 = .
	.cfi_startproc
	.set	nomips16
	.set	nomicromips
	.ent	_ZNSt6thread11_State_implINS_8_InvokerISt5tupleIJZZN8TestCase7runImplIJZN13SpinUseSeqCst3runEvEUlvE_ZNS5_3runEvEUlvE0_EEE10TestResultDpT_ENKUlT_E_clIS7_EEDaSB_EUlvE_EEEEED2Ev
	.type	_ZNSt6thread11_State_implINS_8_InvokerISt5tupleIJZZN8TestCase7runImplIJZN13SpinUseSeqCst3runEvEUlvE_ZNS5_3runEvEUlvE0_EEE10TestResultDpT_ENKUlT_E_clIS7_EEDaSB_EUlvE_EEEEED2Ev, @function
_ZNSt6thread11_State_implINS_8_InvokerISt5tupleIJZZN8TestCase7runImplIJZN13SpinUseSeqCst3runEvEUlvE_ZNS5_3runEvEUlvE0_EEE10TestResultDpT_ENKUlT_E_clIS7_EEDaSB_EUlvE_EEEEED2Ev:
	.frame	$sp,0,$31		# vars= 0, regs= 0/0, args= 0, gp= 0
	.mask	0x00000000,0
	.fmask	0x00000000,0
	.set	noreorder
	.set	nomacro
	lui	$2,%hi(_ZTVNSt6thread11_State_implINS_8_InvokerISt5tupleIJZZN8TestCase7runImplIJZN13SpinUseSeqCst3runEvEUlvE_ZNS5_3runEvEUlvE0_EEE10TestResultDpT_ENKUlT_E_clIS7_EEDaSB_EUlvE_EEEEEE+8)
	addiu	$2,$2,%lo(_ZTVNSt6thread11_State_implINS_8_InvokerISt5tupleIJZZN8TestCase7runImplIJZN13SpinUseSeqCst3runEvEUlvE_ZNS5_3runEvEUlvE0_EEE10TestResultDpT_ENKUlT_E_clIS7_EEDaSB_EUlvE_EEEEEE+8)
	j	_ZNSt6thread6_StateD2Ev
	sw	$2,0($4)

	.set	macro
	.set	reorder
	.end	_ZNSt6thread11_State_implINS_8_InvokerISt5tupleIJZZN8TestCase7runImplIJZN13SpinUseSeqCst3runEvEUlvE_ZNS5_3runEvEUlvE0_EEE10TestResultDpT_ENKUlT_E_clIS7_EEDaSB_EUlvE_EEEEED2Ev
	.cfi_endproc
$LFE7115:
	.size	_ZNSt6thread11_State_implINS_8_InvokerISt5tupleIJZZN8TestCase7runImplIJZN13SpinUseSeqCst3runEvEUlvE_ZNS5_3runEvEUlvE0_EEE10TestResultDpT_ENKUlT_E_clIS7_EEDaSB_EUlvE_EEEEED2Ev, .-_ZNSt6thread11_State_implINS_8_InvokerISt5tupleIJZZN8TestCase7runImplIJZN13SpinUseSeqCst3runEvEUlvE_ZNS5_3runEvEUlvE0_EEE10TestResultDpT_ENKUlT_E_clIS7_EEDaSB_EUlvE_EEEEED2Ev
	.weak	_ZNSt6thread11_State_implINS_8_InvokerISt5tupleIJZZN8TestCase7runImplIJZN13SpinUseSeqCst3runEvEUlvE_ZNS5_3runEvEUlvE0_EEE10TestResultDpT_ENKUlT_E_clIS7_EEDaSB_EUlvE_EEEEED1Ev
	_ZNSt6thread11_State_implINS_8_InvokerISt5tupleIJZZN8TestCase7runImplIJZN13SpinUseSeqCst3runEvEUlvE_ZNS5_3runEvEUlvE0_EEE10TestResultDpT_ENKUlT_E_clIS7_EEDaSB_EUlvE_EEEEED1Ev = _ZNSt6thread11_State_implINS_8_InvokerISt5tupleIJZZN8TestCase7runImplIJZN13SpinUseSeqCst3runEvEUlvE_ZNS5_3runEvEUlvE0_EEE10TestResultDpT_ENKUlT_E_clIS7_EEDaSB_EUlvE_EEEEED2Ev
	.section	.text._ZNSt6thread11_State_implINS_8_InvokerISt5tupleIJZZN8TestCase7runImplIJZN13SpinUseSeqCst3runEvEUlvE_ZNS5_3runEvEUlvE0_EEE10TestResultDpT_ENKUlT_E_clIS7_EEDaSB_EUlvE_EEEEED0Ev,"axG",@progbits,_ZNSt6thread11_State_implINS_8_InvokerISt5tupleIJZZN8TestCase7runImplIJZN13SpinUseSeqCst3runEvEUlvE_ZNS5_3runEvEUlvE0_EEE10TestResultDpT_ENKUlT_E_clIS7_EEDaSB_EUlvE_EEEEED5Ev,comdat
	.align	2
	.weak	_ZNSt6thread11_State_implINS_8_InvokerISt5tupleIJZZN8TestCase7runImplIJZN13SpinUseSeqCst3runEvEUlvE_ZNS5_3runEvEUlvE0_EEE10TestResultDpT_ENKUlT_E_clIS7_EEDaSB_EUlvE_EEEEED0Ev
$LFB7117 = .
	.cfi_startproc
	.set	nomips16
	.set	nomicromips
	.ent	_ZNSt6thread11_State_implINS_8_InvokerISt5tupleIJZZN8TestCase7runImplIJZN13SpinUseSeqCst3runEvEUlvE_ZNS5_3runEvEUlvE0_EEE10TestResultDpT_ENKUlT_E_clIS7_EEDaSB_EUlvE_EEEEED0Ev
	.type	_ZNSt6thread11_State_implINS_8_InvokerISt5tupleIJZZN8TestCase7runImplIJZN13SpinUseSeqCst3runEvEUlvE_ZNS5_3runEvEUlvE0_EEE10TestResultDpT_ENKUlT_E_clIS7_EEDaSB_EUlvE_EEEEED0Ev, @function
_ZNSt6thread11_State_implINS_8_InvokerISt5tupleIJZZN8TestCase7runImplIJZN13SpinUseSeqCst3runEvEUlvE_ZNS5_3runEvEUlvE0_EEE10TestResultDpT_ENKUlT_E_clIS7_EEDaSB_EUlvE_EEEEED0Ev:
	.frame	$sp,32,$31		# vars= 0, regs= 2/0, args= 16, gp= 8
	.mask	0x80010000,-4
	.fmask	0x00000000,0
	.set	noreorder
	.set	nomacro
	addiu	$sp,$sp,-32
	.cfi_def_cfa_offset 32
	lui	$2,%hi(_ZTVNSt6thread11_State_implINS_8_InvokerISt5tupleIJZZN8TestCase7runImplIJZN13SpinUseSeqCst3runEvEUlvE_ZNS5_3runEvEUlvE0_EEE10TestResultDpT_ENKUlT_E_clIS7_EEDaSB_EUlvE_EEEEEE+8)
	addiu	$2,$2,%lo(_ZTVNSt6thread11_State_implINS_8_InvokerISt5tupleIJZZN8TestCase7runImplIJZN13SpinUseSeqCst3runEvEUlvE_ZNS5_3runEvEUlvE0_EEE10TestResultDpT_ENKUlT_E_clIS7_EEDaSB_EUlvE_EEEEEE+8)
	sw	$16,24($sp)
	sw	$31,28($sp)
	.cfi_offset 16, -8
	.cfi_offset 31, -4
	move	$16,$4
	jal	_ZNSt6thread6_StateD2Ev
	sw	$2,0($4)

	lw	$31,28($sp)
	move	$4,$16
	lw	$16,24($sp)
	li	$5,20			# 0x14
	.cfi_restore 16
	.cfi_restore 31
	j	_ZdlPvj
	addiu	$sp,$sp,32

	.cfi_def_cfa_offset 0
	.set	macro
	.set	reorder
	.end	_ZNSt6thread11_State_implINS_8_InvokerISt5tupleIJZZN8TestCase7runImplIJZN13SpinUseSeqCst3runEvEUlvE_ZNS5_3runEvEUlvE0_EEE10TestResultDpT_ENKUlT_E_clIS7_EEDaSB_EUlvE_EEEEED0Ev
	.cfi_endproc
$LFE7117:
	.size	_ZNSt6thread11_State_implINS_8_InvokerISt5tupleIJZZN8TestCase7runImplIJZN13SpinUseSeqCst3runEvEUlvE_ZNS5_3runEvEUlvE0_EEE10TestResultDpT_ENKUlT_E_clIS7_EEDaSB_EUlvE_EEEEED0Ev, .-_ZNSt6thread11_State_implINS_8_InvokerISt5tupleIJZZN8TestCase7runImplIJZN13SpinUseSeqCst3runEvEUlvE_ZNS5_3runEvEUlvE0_EEE10TestResultDpT_ENKUlT_E_clIS7_EEDaSB_EUlvE_EEEEED0Ev
	.section	.text._ZNSt6thread11_State_implINS_8_InvokerISt5tupleIJZZN8TestCase7runImplIJZN13SpinUseSeqCst3runEvEUlvE_ZNS5_3runEvEUlvE0_EEE10TestResultDpT_ENKUlT_E_clIS6_EEDaSB_EUlvE_EEEEED2Ev,"axG",@progbits,_ZNSt6thread11_State_implINS_8_InvokerISt5tupleIJZZN8TestCase7runImplIJZN13SpinUseSeqCst3runEvEUlvE_ZNS5_3runEvEUlvE0_EEE10TestResultDpT_ENKUlT_E_clIS6_EEDaSB_EUlvE_EEEEED5Ev,comdat
	.align	2
	.weak	_ZNSt6thread11_State_implINS_8_InvokerISt5tupleIJZZN8TestCase7runImplIJZN13SpinUseSeqCst3runEvEUlvE_ZNS5_3runEvEUlvE0_EEE10TestResultDpT_ENKUlT_E_clIS6_EEDaSB_EUlvE_EEEEED2Ev
$LFB7119 = .
	.cfi_startproc
	.set	nomips16
	.set	nomicromips
	.ent	_ZNSt6thread11_State_implINS_8_InvokerISt5tupleIJZZN8TestCase7runImplIJZN13SpinUseSeqCst3runEvEUlvE_ZNS5_3runEvEUlvE0_EEE10TestResultDpT_ENKUlT_E_clIS6_EEDaSB_EUlvE_EEEEED2Ev
	.type	_ZNSt6thread11_State_implINS_8_InvokerISt5tupleIJZZN8TestCase7runImplIJZN13SpinUseSeqCst3runEvEUlvE_ZNS5_3runEvEUlvE0_EEE10TestResultDpT_ENKUlT_E_clIS6_EEDaSB_EUlvE_EEEEED2Ev, @function
_ZNSt6thread11_State_implINS_8_InvokerISt5tupleIJZZN8TestCase7runImplIJZN13SpinUseSeqCst3runEvEUlvE_ZNS5_3runEvEUlvE0_EEE10TestResultDpT_ENKUlT_E_clIS6_EEDaSB_EUlvE_EEEEED2Ev:
	.frame	$sp,0,$31		# vars= 0, regs= 0/0, args= 0, gp= 0
	.mask	0x00000000,0
	.fmask	0x00000000,0
	.set	noreorder
	.set	nomacro
	lui	$2,%hi(_ZTVNSt6thread11_State_implINS_8_InvokerISt5tupleIJZZN8TestCase7runImplIJZN13SpinUseSeqCst3runEvEUlvE_ZNS5_3runEvEUlvE0_EEE10TestResultDpT_ENKUlT_E_clIS6_EEDaSB_EUlvE_EEEEEE+8)
	addiu	$2,$2,%lo(_ZTVNSt6thread11_State_implINS_8_InvokerISt5tupleIJZZN8TestCase7runImplIJZN13SpinUseSeqCst3runEvEUlvE_ZNS5_3runEvEUlvE0_EEE10TestResultDpT_ENKUlT_E_clIS6_EEDaSB_EUlvE_EEEEEE+8)
	j	_ZNSt6thread6_StateD2Ev
	sw	$2,0($4)

	.set	macro
	.set	reorder
	.end	_ZNSt6thread11_State_implINS_8_InvokerISt5tupleIJZZN8TestCase7runImplIJZN13SpinUseSeqCst3runEvEUlvE_ZNS5_3runEvEUlvE0_EEE10TestResultDpT_ENKUlT_E_clIS6_EEDaSB_EUlvE_EEEEED2Ev
	.cfi_endproc
$LFE7119:
	.size	_ZNSt6thread11_State_implINS_8_InvokerISt5tupleIJZZN8TestCase7runImplIJZN13SpinUseSeqCst3runEvEUlvE_ZNS5_3runEvEUlvE0_EEE10TestResultDpT_ENKUlT_E_clIS6_EEDaSB_EUlvE_EEEEED2Ev, .-_ZNSt6thread11_State_implINS_8_InvokerISt5tupleIJZZN8TestCase7runImplIJZN13SpinUseSeqCst3runEvEUlvE_ZNS5_3runEvEUlvE0_EEE10TestResultDpT_ENKUlT_E_clIS6_EEDaSB_EUlvE_EEEEED2Ev
	.weak	_ZNSt6thread11_State_implINS_8_InvokerISt5tupleIJZZN8TestCase7runImplIJZN13SpinUseSeqCst3runEvEUlvE_ZNS5_3runEvEUlvE0_EEE10TestResultDpT_ENKUlT_E_clIS6_EEDaSB_EUlvE_EEEEED1Ev
	_ZNSt6thread11_State_implINS_8_InvokerISt5tupleIJZZN8TestCase7runImplIJZN13SpinUseSeqCst3runEvEUlvE_ZNS5_3runEvEUlvE0_EEE10TestResultDpT_ENKUlT_E_clIS6_EEDaSB_EUlvE_EEEEED1Ev = _ZNSt6thread11_State_implINS_8_InvokerISt5tupleIJZZN8TestCase7runImplIJZN13SpinUseSeqCst3runEvEUlvE_ZNS5_3runEvEUlvE0_EEE10TestResultDpT_ENKUlT_E_clIS6_EEDaSB_EUlvE_EEEEED2Ev
	.section	.text._ZNSt6thread11_State_implINS_8_InvokerISt5tupleIJZZN8TestCase7runImplIJZN13SpinUseSeqCst3runEvEUlvE_ZNS5_3runEvEUlvE0_EEE10TestResultDpT_ENKUlT_E_clIS6_EEDaSB_EUlvE_EEEEED0Ev,"axG",@progbits,_ZNSt6thread11_State_implINS_8_InvokerISt5tupleIJZZN8TestCase7runImplIJZN13SpinUseSeqCst3runEvEUlvE_ZNS5_3runEvEUlvE0_EEE10TestResultDpT_ENKUlT_E_clIS6_EEDaSB_EUlvE_EEEEED5Ev,comdat
	.align	2
	.weak	_ZNSt6thread11_State_implINS_8_InvokerISt5tupleIJZZN8TestCase7runImplIJZN13SpinUseSeqCst3runEvEUlvE_ZNS5_3runEvEUlvE0_EEE10TestResultDpT_ENKUlT_E_clIS6_EEDaSB_EUlvE_EEEEED0Ev
$LFB7121 = .
	.cfi_startproc
	.set	nomips16
	.set	nomicromips
	.ent	_ZNSt6thread11_State_implINS_8_InvokerISt5tupleIJZZN8TestCase7runImplIJZN13SpinUseSeqCst3runEvEUlvE_ZNS5_3runEvEUlvE0_EEE10TestResultDpT_ENKUlT_E_clIS6_EEDaSB_EUlvE_EEEEED0Ev
	.type	_ZNSt6thread11_State_implINS_8_InvokerISt5tupleIJZZN8TestCase7runImplIJZN13SpinUseSeqCst3runEvEUlvE_ZNS5_3runEvEUlvE0_EEE10TestResultDpT_ENKUlT_E_clIS6_EEDaSB_EUlvE_EEEEED0Ev, @function
_ZNSt6thread11_State_implINS_8_InvokerISt5tupleIJZZN8TestCase7runImplIJZN13SpinUseSeqCst3runEvEUlvE_ZNS5_3runEvEUlvE0_EEE10TestResultDpT_ENKUlT_E_clIS6_EEDaSB_EUlvE_EEEEED0Ev:
	.frame	$sp,32,$31		# vars= 0, regs= 2/0, args= 16, gp= 8
	.mask	0x80010000,-4
	.fmask	0x00000000,0
	.set	noreorder
	.set	nomacro
	addiu	$sp,$sp,-32
	.cfi_def_cfa_offset 32
	lui	$2,%hi(_ZTVNSt6thread11_State_implINS_8_InvokerISt5tupleIJZZN8TestCase7runImplIJZN13SpinUseSeqCst3runEvEUlvE_ZNS5_3runEvEUlvE0_EEE10TestResultDpT_ENKUlT_E_clIS6_EEDaSB_EUlvE_EEEEEE+8)
	addiu	$2,$2,%lo(_ZTVNSt6thread11_State_implINS_8_InvokerISt5tupleIJZZN8TestCase7runImplIJZN13SpinUseSeqCst3runEvEUlvE_ZNS5_3runEvEUlvE0_EEE10TestResultDpT_ENKUlT_E_clIS6_EEDaSB_EUlvE_EEEEEE+8)
	sw	$16,24($sp)
	sw	$31,28($sp)
	.cfi_offset 16, -8
	.cfi_offset 31, -4
	move	$16,$4
	jal	_ZNSt6thread6_StateD2Ev
	sw	$2,0($4)

	lw	$31,28($sp)
	move	$4,$16
	lw	$16,24($sp)
	li	$5,20			# 0x14
	.cfi_restore 16
	.cfi_restore 31
	j	_ZdlPvj
	addiu	$sp,$sp,32

	.cfi_def_cfa_offset 0
	.set	macro
	.set	reorder
	.end	_ZNSt6thread11_State_implINS_8_InvokerISt5tupleIJZZN8TestCase7runImplIJZN13SpinUseSeqCst3runEvEUlvE_ZNS5_3runEvEUlvE0_EEE10TestResultDpT_ENKUlT_E_clIS6_EEDaSB_EUlvE_EEEEED0Ev
	.cfi_endproc
$LFE7121:
	.size	_ZNSt6thread11_State_implINS_8_InvokerISt5tupleIJZZN8TestCase7runImplIJZN13SpinUseSeqCst3runEvEUlvE_ZNS5_3runEvEUlvE0_EEE10TestResultDpT_ENKUlT_E_clIS6_EEDaSB_EUlvE_EEEEED0Ev, .-_ZNSt6thread11_State_implINS_8_InvokerISt5tupleIJZZN8TestCase7runImplIJZN13SpinUseSeqCst3runEvEUlvE_ZNS5_3runEvEUlvE0_EEE10TestResultDpT_ENKUlT_E_clIS6_EEDaSB_EUlvE_EEEEED0Ev
	.section	.text._ZNSt6thread11_State_implINS_8_InvokerISt5tupleIJZZN8TestCase7runImplIJZN20SpinUseAcqRelRegular3runEvEUlvE_ZNS5_3runEvEUlvE0_EEE10TestResultDpT_ENKUlT_E_clIS7_EEDaSB_EUlvE_EEEEED2Ev,"axG",@progbits,_ZNSt6thread11_State_implINS_8_InvokerISt5tupleIJZZN8TestCase7runImplIJZN20SpinUseAcqRelRegular3runEvEUlvE_ZNS5_3runEvEUlvE0_EEE10TestResultDpT_ENKUlT_E_clIS7_EEDaSB_EUlvE_EEEEED5Ev,comdat
	.align	2
	.weak	_ZNSt6thread11_State_implINS_8_InvokerISt5tupleIJZZN8TestCase7runImplIJZN20SpinUseAcqRelRegular3runEvEUlvE_ZNS5_3runEvEUlvE0_EEE10TestResultDpT_ENKUlT_E_clIS7_EEDaSB_EUlvE_EEEEED2Ev
$LFB7123 = .
	.cfi_startproc
	.set	nomips16
	.set	nomicromips
	.ent	_ZNSt6thread11_State_implINS_8_InvokerISt5tupleIJZZN8TestCase7runImplIJZN20SpinUseAcqRelRegular3runEvEUlvE_ZNS5_3runEvEUlvE0_EEE10TestResultDpT_ENKUlT_E_clIS7_EEDaSB_EUlvE_EEEEED2Ev
	.type	_ZNSt6thread11_State_implINS_8_InvokerISt5tupleIJZZN8TestCase7runImplIJZN20SpinUseAcqRelRegular3runEvEUlvE_ZNS5_3runEvEUlvE0_EEE10TestResultDpT_ENKUlT_E_clIS7_EEDaSB_EUlvE_EEEEED2Ev, @function
_ZNSt6thread11_State_implINS_8_InvokerISt5tupleIJZZN8TestCase7runImplIJZN20SpinUseAcqRelRegular3runEvEUlvE_ZNS5_3runEvEUlvE0_EEE10TestResultDpT_ENKUlT_E_clIS7_EEDaSB_EUlvE_EEEEED2Ev:
	.frame	$sp,0,$31		# vars= 0, regs= 0/0, args= 0, gp= 0
	.mask	0x00000000,0
	.fmask	0x00000000,0
	.set	noreorder
	.set	nomacro
	lui	$2,%hi(_ZTVNSt6thread11_State_implINS_8_InvokerISt5tupleIJZZN8TestCase7runImplIJZN20SpinUseAcqRelRegular3runEvEUlvE_ZNS5_3runEvEUlvE0_EEE10TestResultDpT_ENKUlT_E_clIS7_EEDaSB_EUlvE_EEEEEE+8)
	addiu	$2,$2,%lo(_ZTVNSt6thread11_State_implINS_8_InvokerISt5tupleIJZZN8TestCase7runImplIJZN20SpinUseAcqRelRegular3runEvEUlvE_ZNS5_3runEvEUlvE0_EEE10TestResultDpT_ENKUlT_E_clIS7_EEDaSB_EUlvE_EEEEEE+8)
	j	_ZNSt6thread6_StateD2Ev
	sw	$2,0($4)

	.set	macro
	.set	reorder
	.end	_ZNSt6thread11_State_implINS_8_InvokerISt5tupleIJZZN8TestCase7runImplIJZN20SpinUseAcqRelRegular3runEvEUlvE_ZNS5_3runEvEUlvE0_EEE10TestResultDpT_ENKUlT_E_clIS7_EEDaSB_EUlvE_EEEEED2Ev
	.cfi_endproc
$LFE7123:
	.size	_ZNSt6thread11_State_implINS_8_InvokerISt5tupleIJZZN8TestCase7runImplIJZN20SpinUseAcqRelRegular3runEvEUlvE_ZNS5_3runEvEUlvE0_EEE10TestResultDpT_ENKUlT_E_clIS7_EEDaSB_EUlvE_EEEEED2Ev, .-_ZNSt6thread11_State_implINS_8_InvokerISt5tupleIJZZN8TestCase7runImplIJZN20SpinUseAcqRelRegular3runEvEUlvE_ZNS5_3runEvEUlvE0_EEE10TestResultDpT_ENKUlT_E_clIS7_EEDaSB_EUlvE_EEEEED2Ev
	.weak	_ZNSt6thread11_State_implINS_8_InvokerISt5tupleIJZZN8TestCase7runImplIJZN20SpinUseAcqRelRegular3runEvEUlvE_ZNS5_3runEvEUlvE0_EEE10TestResultDpT_ENKUlT_E_clIS7_EEDaSB_EUlvE_EEEEED1Ev
	_ZNSt6thread11_State_implINS_8_InvokerISt5tupleIJZZN8TestCase7runImplIJZN20SpinUseAcqRelRegular3runEvEUlvE_ZNS5_3runEvEUlvE0_EEE10TestResultDpT_ENKUlT_E_clIS7_EEDaSB_EUlvE_EEEEED1Ev = _ZNSt6thread11_State_implINS_8_InvokerISt5tupleIJZZN8TestCase7runImplIJZN20SpinUseAcqRelRegular3runEvEUlvE_ZNS5_3runEvEUlvE0_EEE10TestResultDpT_ENKUlT_E_clIS7_EEDaSB_EUlvE_EEEEED2Ev
	.section	.text._ZNSt6thread11_State_implINS_8_InvokerISt5tupleIJZZN8TestCase7runImplIJZN20SpinUseAcqRelRegular3runEvEUlvE_ZNS5_3runEvEUlvE0_EEE10TestResultDpT_ENKUlT_E_clIS7_EEDaSB_EUlvE_EEEEED0Ev,"axG",@progbits,_ZNSt6thread11_State_implINS_8_InvokerISt5tupleIJZZN8TestCase7runImplIJZN20SpinUseAcqRelRegular3runEvEUlvE_ZNS5_3runEvEUlvE0_EEE10TestResultDpT_ENKUlT_E_clIS7_EEDaSB_EUlvE_EEEEED5Ev,comdat
	.align	2
	.weak	_ZNSt6thread11_State_implINS_8_InvokerISt5tupleIJZZN8TestCase7runImplIJZN20SpinUseAcqRelRegular3runEvEUlvE_ZNS5_3runEvEUlvE0_EEE10TestResultDpT_ENKUlT_E_clIS7_EEDaSB_EUlvE_EEEEED0Ev
$LFB7125 = .
	.cfi_startproc
	.set	nomips16
	.set	nomicromips
	.ent	_ZNSt6thread11_State_implINS_8_InvokerISt5tupleIJZZN8TestCase7runImplIJZN20SpinUseAcqRelRegular3runEvEUlvE_ZNS5_3runEvEUlvE0_EEE10TestResultDpT_ENKUlT_E_clIS7_EEDaSB_EUlvE_EEEEED0Ev
	.type	_ZNSt6thread11_State_implINS_8_InvokerISt5tupleIJZZN8TestCase7runImplIJZN20SpinUseAcqRelRegular3runEvEUlvE_ZNS5_3runEvEUlvE0_EEE10TestResultDpT_ENKUlT_E_clIS7_EEDaSB_EUlvE_EEEEED0Ev, @function
_ZNSt6thread11_State_implINS_8_InvokerISt5tupleIJZZN8TestCase7runImplIJZN20SpinUseAcqRelRegular3runEvEUlvE_ZNS5_3runEvEUlvE0_EEE10TestResultDpT_ENKUlT_E_clIS7_EEDaSB_EUlvE_EEEEED0Ev:
	.frame	$sp,32,$31		# vars= 0, regs= 2/0, args= 16, gp= 8
	.mask	0x80010000,-4
	.fmask	0x00000000,0
	.set	noreorder
	.set	nomacro
	addiu	$sp,$sp,-32
	.cfi_def_cfa_offset 32
	lui	$2,%hi(_ZTVNSt6thread11_State_implINS_8_InvokerISt5tupleIJZZN8TestCase7runImplIJZN20SpinUseAcqRelRegular3runEvEUlvE_ZNS5_3runEvEUlvE0_EEE10TestResultDpT_ENKUlT_E_clIS7_EEDaSB_EUlvE_EEEEEE+8)
	addiu	$2,$2,%lo(_ZTVNSt6thread11_State_implINS_8_InvokerISt5tupleIJZZN8TestCase7runImplIJZN20SpinUseAcqRelRegular3runEvEUlvE_ZNS5_3runEvEUlvE0_EEE10TestResultDpT_ENKUlT_E_clIS7_EEDaSB_EUlvE_EEEEEE+8)
	sw	$16,24($sp)
	sw	$31,28($sp)
	.cfi_offset 16, -8
	.cfi_offset 31, -4
	move	$16,$4
	jal	_ZNSt6thread6_StateD2Ev
	sw	$2,0($4)

	lw	$31,28($sp)
	move	$4,$16
	lw	$16,24($sp)
	li	$5,20			# 0x14
	.cfi_restore 16
	.cfi_restore 31
	j	_ZdlPvj
	addiu	$sp,$sp,32

	.cfi_def_cfa_offset 0
	.set	macro
	.set	reorder
	.end	_ZNSt6thread11_State_implINS_8_InvokerISt5tupleIJZZN8TestCase7runImplIJZN20SpinUseAcqRelRegular3runEvEUlvE_ZNS5_3runEvEUlvE0_EEE10TestResultDpT_ENKUlT_E_clIS7_EEDaSB_EUlvE_EEEEED0Ev
	.cfi_endproc
$LFE7125:
	.size	_ZNSt6thread11_State_implINS_8_InvokerISt5tupleIJZZN8TestCase7runImplIJZN20SpinUseAcqRelRegular3runEvEUlvE_ZNS5_3runEvEUlvE0_EEE10TestResultDpT_ENKUlT_E_clIS7_EEDaSB_EUlvE_EEEEED0Ev, .-_ZNSt6thread11_State_implINS_8_InvokerISt5tupleIJZZN8TestCase7runImplIJZN20SpinUseAcqRelRegular3runEvEUlvE_ZNS5_3runEvEUlvE0_EEE10TestResultDpT_ENKUlT_E_clIS7_EEDaSB_EUlvE_EEEEED0Ev
	.section	.text._ZNSt6thread11_State_implINS_8_InvokerISt5tupleIJZZN8TestCase7runImplIJZN20SpinUseAcqRelRegular3runEvEUlvE_ZNS5_3runEvEUlvE0_EEE10TestResultDpT_ENKUlT_E_clIS6_EEDaSB_EUlvE_EEEEED2Ev,"axG",@progbits,_ZNSt6thread11_State_implINS_8_InvokerISt5tupleIJZZN8TestCase7runImplIJZN20SpinUseAcqRelRegular3runEvEUlvE_ZNS5_3runEvEUlvE0_EEE10TestResultDpT_ENKUlT_E_clIS6_EEDaSB_EUlvE_EEEEED5Ev,comdat
	.align	2
	.weak	_ZNSt6thread11_State_implINS_8_InvokerISt5tupleIJZZN8TestCase7runImplIJZN20SpinUseAcqRelRegular3runEvEUlvE_ZNS5_3runEvEUlvE0_EEE10TestResultDpT_ENKUlT_E_clIS6_EEDaSB_EUlvE_EEEEED2Ev
$LFB7127 = .
	.cfi_startproc
	.set	nomips16
	.set	nomicromips
	.ent	_ZNSt6thread11_State_implINS_8_InvokerISt5tupleIJZZN8TestCase7runImplIJZN20SpinUseAcqRelRegular3runEvEUlvE_ZNS5_3runEvEUlvE0_EEE10TestResultDpT_ENKUlT_E_clIS6_EEDaSB_EUlvE_EEEEED2Ev
	.type	_ZNSt6thread11_State_implINS_8_InvokerISt5tupleIJZZN8TestCase7runImplIJZN20SpinUseAcqRelRegular3runEvEUlvE_ZNS5_3runEvEUlvE0_EEE10TestResultDpT_ENKUlT_E_clIS6_EEDaSB_EUlvE_EEEEED2Ev, @function
_ZNSt6thread11_State_implINS_8_InvokerISt5tupleIJZZN8TestCase7runImplIJZN20SpinUseAcqRelRegular3runEvEUlvE_ZNS5_3runEvEUlvE0_EEE10TestResultDpT_ENKUlT_E_clIS6_EEDaSB_EUlvE_EEEEED2Ev:
	.frame	$sp,0,$31		# vars= 0, regs= 0/0, args= 0, gp= 0
	.mask	0x00000000,0
	.fmask	0x00000000,0
	.set	noreorder
	.set	nomacro
	lui	$2,%hi(_ZTVNSt6thread11_State_implINS_8_InvokerISt5tupleIJZZN8TestCase7runImplIJZN20SpinUseAcqRelRegular3runEvEUlvE_ZNS5_3runEvEUlvE0_EEE10TestResultDpT_ENKUlT_E_clIS6_EEDaSB_EUlvE_EEEEEE+8)
	addiu	$2,$2,%lo(_ZTVNSt6thread11_State_implINS_8_InvokerISt5tupleIJZZN8TestCase7runImplIJZN20SpinUseAcqRelRegular3runEvEUlvE_ZNS5_3runEvEUlvE0_EEE10TestResultDpT_ENKUlT_E_clIS6_EEDaSB_EUlvE_EEEEEE+8)
	j	_ZNSt6thread6_StateD2Ev
	sw	$2,0($4)

	.set	macro
	.set	reorder
	.end	_ZNSt6thread11_State_implINS_8_InvokerISt5tupleIJZZN8TestCase7runImplIJZN20SpinUseAcqRelRegular3runEvEUlvE_ZNS5_3runEvEUlvE0_EEE10TestResultDpT_ENKUlT_E_clIS6_EEDaSB_EUlvE_EEEEED2Ev
	.cfi_endproc
$LFE7127:
	.size	_ZNSt6thread11_State_implINS_8_InvokerISt5tupleIJZZN8TestCase7runImplIJZN20SpinUseAcqRelRegular3runEvEUlvE_ZNS5_3runEvEUlvE0_EEE10TestResultDpT_ENKUlT_E_clIS6_EEDaSB_EUlvE_EEEEED2Ev, .-_ZNSt6thread11_State_implINS_8_InvokerISt5tupleIJZZN8TestCase7runImplIJZN20SpinUseAcqRelRegular3runEvEUlvE_ZNS5_3runEvEUlvE0_EEE10TestResultDpT_ENKUlT_E_clIS6_EEDaSB_EUlvE_EEEEED2Ev
	.weak	_ZNSt6thread11_State_implINS_8_InvokerISt5tupleIJZZN8TestCase7runImplIJZN20SpinUseAcqRelRegular3runEvEUlvE_ZNS5_3runEvEUlvE0_EEE10TestResultDpT_ENKUlT_E_clIS6_EEDaSB_EUlvE_EEEEED1Ev
	_ZNSt6thread11_State_implINS_8_InvokerISt5tupleIJZZN8TestCase7runImplIJZN20SpinUseAcqRelRegular3runEvEUlvE_ZNS5_3runEvEUlvE0_EEE10TestResultDpT_ENKUlT_E_clIS6_EEDaSB_EUlvE_EEEEED1Ev = _ZNSt6thread11_State_implINS_8_InvokerISt5tupleIJZZN8TestCase7runImplIJZN20SpinUseAcqRelRegular3runEvEUlvE_ZNS5_3runEvEUlvE0_EEE10TestResultDpT_ENKUlT_E_clIS6_EEDaSB_EUlvE_EEEEED2Ev
	.section	.text._ZNSt6thread11_State_implINS_8_InvokerISt5tupleIJZZN8TestCase7runImplIJZN20SpinUseAcqRelRegular3runEvEUlvE_ZNS5_3runEvEUlvE0_EEE10TestResultDpT_ENKUlT_E_clIS6_EEDaSB_EUlvE_EEEEED0Ev,"axG",@progbits,_ZNSt6thread11_State_implINS_8_InvokerISt5tupleIJZZN8TestCase7runImplIJZN20SpinUseAcqRelRegular3runEvEUlvE_ZNS5_3runEvEUlvE0_EEE10TestResultDpT_ENKUlT_E_clIS6_EEDaSB_EUlvE_EEEEED5Ev,comdat
	.align	2
	.weak	_ZNSt6thread11_State_implINS_8_InvokerISt5tupleIJZZN8TestCase7runImplIJZN20SpinUseAcqRelRegular3runEvEUlvE_ZNS5_3runEvEUlvE0_EEE10TestResultDpT_ENKUlT_E_clIS6_EEDaSB_EUlvE_EEEEED0Ev
$LFB7129 = .
	.cfi_startproc
	.set	nomips16
	.set	nomicromips
	.ent	_ZNSt6thread11_State_implINS_8_InvokerISt5tupleIJZZN8TestCase7runImplIJZN20SpinUseAcqRelRegular3runEvEUlvE_ZNS5_3runEvEUlvE0_EEE10TestResultDpT_ENKUlT_E_clIS6_EEDaSB_EUlvE_EEEEED0Ev
	.type	_ZNSt6thread11_State_implINS_8_InvokerISt5tupleIJZZN8TestCase7runImplIJZN20SpinUseAcqRelRegular3runEvEUlvE_ZNS5_3runEvEUlvE0_EEE10TestResultDpT_ENKUlT_E_clIS6_EEDaSB_EUlvE_EEEEED0Ev, @function
_ZNSt6thread11_State_implINS_8_InvokerISt5tupleIJZZN8TestCase7runImplIJZN20SpinUseAcqRelRegular3runEvEUlvE_ZNS5_3runEvEUlvE0_EEE10TestResultDpT_ENKUlT_E_clIS6_EEDaSB_EUlvE_EEEEED0Ev:
	.frame	$sp,32,$31		# vars= 0, regs= 2/0, args= 16, gp= 8
	.mask	0x80010000,-4
	.fmask	0x00000000,0
	.set	noreorder
	.set	nomacro
	addiu	$sp,$sp,-32
	.cfi_def_cfa_offset 32
	lui	$2,%hi(_ZTVNSt6thread11_State_implINS_8_InvokerISt5tupleIJZZN8TestCase7runImplIJZN20SpinUseAcqRelRegular3runEvEUlvE_ZNS5_3runEvEUlvE0_EEE10TestResultDpT_ENKUlT_E_clIS6_EEDaSB_EUlvE_EEEEEE+8)
	addiu	$2,$2,%lo(_ZTVNSt6thread11_State_implINS_8_InvokerISt5tupleIJZZN8TestCase7runImplIJZN20SpinUseAcqRelRegular3runEvEUlvE_ZNS5_3runEvEUlvE0_EEE10TestResultDpT_ENKUlT_E_clIS6_EEDaSB_EUlvE_EEEEEE+8)
	sw	$16,24($sp)
	sw	$31,28($sp)
	.cfi_offset 16, -8
	.cfi_offset 31, -4
	move	$16,$4
	jal	_ZNSt6thread6_StateD2Ev
	sw	$2,0($4)

	lw	$31,28($sp)
	move	$4,$16
	lw	$16,24($sp)
	li	$5,20			# 0x14
	.cfi_restore 16
	.cfi_restore 31
	j	_ZdlPvj
	addiu	$sp,$sp,32

	.cfi_def_cfa_offset 0
	.set	macro
	.set	reorder
	.end	_ZNSt6thread11_State_implINS_8_InvokerISt5tupleIJZZN8TestCase7runImplIJZN20SpinUseAcqRelRegular3runEvEUlvE_ZNS5_3runEvEUlvE0_EEE10TestResultDpT_ENKUlT_E_clIS6_EEDaSB_EUlvE_EEEEED0Ev
	.cfi_endproc
$LFE7129:
	.size	_ZNSt6thread11_State_implINS_8_InvokerISt5tupleIJZZN8TestCase7runImplIJZN20SpinUseAcqRelRegular3runEvEUlvE_ZNS5_3runEvEUlvE0_EEE10TestResultDpT_ENKUlT_E_clIS6_EEDaSB_EUlvE_EEEEED0Ev, .-_ZNSt6thread11_State_implINS_8_InvokerISt5tupleIJZZN8TestCase7runImplIJZN20SpinUseAcqRelRegular3runEvEUlvE_ZNS5_3runEvEUlvE0_EEE10TestResultDpT_ENKUlT_E_clIS6_EEDaSB_EUlvE_EEEEED0Ev
	.section	.text._ZNSt6thread11_State_implINS_8_InvokerISt5tupleIJZZN8TestCase7runImplIJZN13SpinUseAcqRel3runEvEUlvE_ZNS5_3runEvEUlvE0_EEE10TestResultDpT_ENKUlT_E_clIS7_EEDaSB_EUlvE_EEEEED2Ev,"axG",@progbits,_ZNSt6thread11_State_implINS_8_InvokerISt5tupleIJZZN8TestCase7runImplIJZN13SpinUseAcqRel3runEvEUlvE_ZNS5_3runEvEUlvE0_EEE10TestResultDpT_ENKUlT_E_clIS7_EEDaSB_EUlvE_EEEEED5Ev,comdat
	.align	2
	.weak	_ZNSt6thread11_State_implINS_8_InvokerISt5tupleIJZZN8TestCase7runImplIJZN13SpinUseAcqRel3runEvEUlvE_ZNS5_3runEvEUlvE0_EEE10TestResultDpT_ENKUlT_E_clIS7_EEDaSB_EUlvE_EEEEED2Ev
$LFB7131 = .
	.cfi_startproc
	.set	nomips16
	.set	nomicromips
	.ent	_ZNSt6thread11_State_implINS_8_InvokerISt5tupleIJZZN8TestCase7runImplIJZN13SpinUseAcqRel3runEvEUlvE_ZNS5_3runEvEUlvE0_EEE10TestResultDpT_ENKUlT_E_clIS7_EEDaSB_EUlvE_EEEEED2Ev
	.type	_ZNSt6thread11_State_implINS_8_InvokerISt5tupleIJZZN8TestCase7runImplIJZN13SpinUseAcqRel3runEvEUlvE_ZNS5_3runEvEUlvE0_EEE10TestResultDpT_ENKUlT_E_clIS7_EEDaSB_EUlvE_EEEEED2Ev, @function
_ZNSt6thread11_State_implINS_8_InvokerISt5tupleIJZZN8TestCase7runImplIJZN13SpinUseAcqRel3runEvEUlvE_ZNS5_3runEvEUlvE0_EEE10TestResultDpT_ENKUlT_E_clIS7_EEDaSB_EUlvE_EEEEED2Ev:
	.frame	$sp,0,$31		# vars= 0, regs= 0/0, args= 0, gp= 0
	.mask	0x00000000,0
	.fmask	0x00000000,0
	.set	noreorder
	.set	nomacro
	lui	$2,%hi(_ZTVNSt6thread11_State_implINS_8_InvokerISt5tupleIJZZN8TestCase7runImplIJZN13SpinUseAcqRel3runEvEUlvE_ZNS5_3runEvEUlvE0_EEE10TestResultDpT_ENKUlT_E_clIS7_EEDaSB_EUlvE_EEEEEE+8)
	addiu	$2,$2,%lo(_ZTVNSt6thread11_State_implINS_8_InvokerISt5tupleIJZZN8TestCase7runImplIJZN13SpinUseAcqRel3runEvEUlvE_ZNS5_3runEvEUlvE0_EEE10TestResultDpT_ENKUlT_E_clIS7_EEDaSB_EUlvE_EEEEEE+8)
	j	_ZNSt6thread6_StateD2Ev
	sw	$2,0($4)

	.set	macro
	.set	reorder
	.end	_ZNSt6thread11_State_implINS_8_InvokerISt5tupleIJZZN8TestCase7runImplIJZN13SpinUseAcqRel3runEvEUlvE_ZNS5_3runEvEUlvE0_EEE10TestResultDpT_ENKUlT_E_clIS7_EEDaSB_EUlvE_EEEEED2Ev
	.cfi_endproc
$LFE7131:
	.size	_ZNSt6thread11_State_implINS_8_InvokerISt5tupleIJZZN8TestCase7runImplIJZN13SpinUseAcqRel3runEvEUlvE_ZNS5_3runEvEUlvE0_EEE10TestResultDpT_ENKUlT_E_clIS7_EEDaSB_EUlvE_EEEEED2Ev, .-_ZNSt6thread11_State_implINS_8_InvokerISt5tupleIJZZN8TestCase7runImplIJZN13SpinUseAcqRel3runEvEUlvE_ZNS5_3runEvEUlvE0_EEE10TestResultDpT_ENKUlT_E_clIS7_EEDaSB_EUlvE_EEEEED2Ev
	.weak	_ZNSt6thread11_State_implINS_8_InvokerISt5tupleIJZZN8TestCase7runImplIJZN13SpinUseAcqRel3runEvEUlvE_ZNS5_3runEvEUlvE0_EEE10TestResultDpT_ENKUlT_E_clIS7_EEDaSB_EUlvE_EEEEED1Ev
	_ZNSt6thread11_State_implINS_8_InvokerISt5tupleIJZZN8TestCase7runImplIJZN13SpinUseAcqRel3runEvEUlvE_ZNS5_3runEvEUlvE0_EEE10TestResultDpT_ENKUlT_E_clIS7_EEDaSB_EUlvE_EEEEED1Ev = _ZNSt6thread11_State_implINS_8_InvokerISt5tupleIJZZN8TestCase7runImplIJZN13SpinUseAcqRel3runEvEUlvE_ZNS5_3runEvEUlvE0_EEE10TestResultDpT_ENKUlT_E_clIS7_EEDaSB_EUlvE_EEEEED2Ev
	.section	.text._ZNSt6thread11_State_implINS_8_InvokerISt5tupleIJZZN8TestCase7runImplIJZN13SpinUseAcqRel3runEvEUlvE_ZNS5_3runEvEUlvE0_EEE10TestResultDpT_ENKUlT_E_clIS7_EEDaSB_EUlvE_EEEEED0Ev,"axG",@progbits,_ZNSt6thread11_State_implINS_8_InvokerISt5tupleIJZZN8TestCase7runImplIJZN13SpinUseAcqRel3runEvEUlvE_ZNS5_3runEvEUlvE0_EEE10TestResultDpT_ENKUlT_E_clIS7_EEDaSB_EUlvE_EEEEED5Ev,comdat
	.align	2
	.weak	_ZNSt6thread11_State_implINS_8_InvokerISt5tupleIJZZN8TestCase7runImplIJZN13SpinUseAcqRel3runEvEUlvE_ZNS5_3runEvEUlvE0_EEE10TestResultDpT_ENKUlT_E_clIS7_EEDaSB_EUlvE_EEEEED0Ev
$LFB7133 = .
	.cfi_startproc
	.set	nomips16
	.set	nomicromips
	.ent	_ZNSt6thread11_State_implINS_8_InvokerISt5tupleIJZZN8TestCase7runImplIJZN13SpinUseAcqRel3runEvEUlvE_ZNS5_3runEvEUlvE0_EEE10TestResultDpT_ENKUlT_E_clIS7_EEDaSB_EUlvE_EEEEED0Ev
	.type	_ZNSt6thread11_State_implINS_8_InvokerISt5tupleIJZZN8TestCase7runImplIJZN13SpinUseAcqRel3runEvEUlvE_ZNS5_3runEvEUlvE0_EEE10TestResultDpT_ENKUlT_E_clIS7_EEDaSB_EUlvE_EEEEED0Ev, @function
_ZNSt6thread11_State_implINS_8_InvokerISt5tupleIJZZN8TestCase7runImplIJZN13SpinUseAcqRel3runEvEUlvE_ZNS5_3runEvEUlvE0_EEE10TestResultDpT_ENKUlT_E_clIS7_EEDaSB_EUlvE_EEEEED0Ev:
	.frame	$sp,32,$31		# vars= 0, regs= 2/0, args= 16, gp= 8
	.mask	0x80010000,-4
	.fmask	0x00000000,0
	.set	noreorder
	.set	nomacro
	addiu	$sp,$sp,-32
	.cfi_def_cfa_offset 32
	lui	$2,%hi(_ZTVNSt6thread11_State_implINS_8_InvokerISt5tupleIJZZN8TestCase7runImplIJZN13SpinUseAcqRel3runEvEUlvE_ZNS5_3runEvEUlvE0_EEE10TestResultDpT_ENKUlT_E_clIS7_EEDaSB_EUlvE_EEEEEE+8)
	addiu	$2,$2,%lo(_ZTVNSt6thread11_State_implINS_8_InvokerISt5tupleIJZZN8TestCase7runImplIJZN13SpinUseAcqRel3runEvEUlvE_ZNS5_3runEvEUlvE0_EEE10TestResultDpT_ENKUlT_E_clIS7_EEDaSB_EUlvE_EEEEEE+8)
	sw	$16,24($sp)
	sw	$31,28($sp)
	.cfi_offset 16, -8
	.cfi_offset 31, -4
	move	$16,$4
	jal	_ZNSt6thread6_StateD2Ev
	sw	$2,0($4)

	lw	$31,28($sp)
	move	$4,$16
	lw	$16,24($sp)
	li	$5,20			# 0x14
	.cfi_restore 16
	.cfi_restore 31
	j	_ZdlPvj
	addiu	$sp,$sp,32

	.cfi_def_cfa_offset 0
	.set	macro
	.set	reorder
	.end	_ZNSt6thread11_State_implINS_8_InvokerISt5tupleIJZZN8TestCase7runImplIJZN13SpinUseAcqRel3runEvEUlvE_ZNS5_3runEvEUlvE0_EEE10TestResultDpT_ENKUlT_E_clIS7_EEDaSB_EUlvE_EEEEED0Ev
	.cfi_endproc
$LFE7133:
	.size	_ZNSt6thread11_State_implINS_8_InvokerISt5tupleIJZZN8TestCase7runImplIJZN13SpinUseAcqRel3runEvEUlvE_ZNS5_3runEvEUlvE0_EEE10TestResultDpT_ENKUlT_E_clIS7_EEDaSB_EUlvE_EEEEED0Ev, .-_ZNSt6thread11_State_implINS_8_InvokerISt5tupleIJZZN8TestCase7runImplIJZN13SpinUseAcqRel3runEvEUlvE_ZNS5_3runEvEUlvE0_EEE10TestResultDpT_ENKUlT_E_clIS7_EEDaSB_EUlvE_EEEEED0Ev
	.section	.text._ZNSt6thread11_State_implINS_8_InvokerISt5tupleIJZZN8TestCase7runImplIJZN13SpinUseAcqRel3runEvEUlvE_ZNS5_3runEvEUlvE0_EEE10TestResultDpT_ENKUlT_E_clIS6_EEDaSB_EUlvE_EEEEED2Ev,"axG",@progbits,_ZNSt6thread11_State_implINS_8_InvokerISt5tupleIJZZN8TestCase7runImplIJZN13SpinUseAcqRel3runEvEUlvE_ZNS5_3runEvEUlvE0_EEE10TestResultDpT_ENKUlT_E_clIS6_EEDaSB_EUlvE_EEEEED5Ev,comdat
	.align	2
	.weak	_ZNSt6thread11_State_implINS_8_InvokerISt5tupleIJZZN8TestCase7runImplIJZN13SpinUseAcqRel3runEvEUlvE_ZNS5_3runEvEUlvE0_EEE10TestResultDpT_ENKUlT_E_clIS6_EEDaSB_EUlvE_EEEEED2Ev
$LFB7135 = .
	.cfi_startproc
	.set	nomips16
	.set	nomicromips
	.ent	_ZNSt6thread11_State_implINS_8_InvokerISt5tupleIJZZN8TestCase7runImplIJZN13SpinUseAcqRel3runEvEUlvE_ZNS5_3runEvEUlvE0_EEE10TestResultDpT_ENKUlT_E_clIS6_EEDaSB_EUlvE_EEEEED2Ev
	.type	_ZNSt6thread11_State_implINS_8_InvokerISt5tupleIJZZN8TestCase7runImplIJZN13SpinUseAcqRel3runEvEUlvE_ZNS5_3runEvEUlvE0_EEE10TestResultDpT_ENKUlT_E_clIS6_EEDaSB_EUlvE_EEEEED2Ev, @function
_ZNSt6thread11_State_implINS_8_InvokerISt5tupleIJZZN8TestCase7runImplIJZN13SpinUseAcqRel3runEvEUlvE_ZNS5_3runEvEUlvE0_EEE10TestResultDpT_ENKUlT_E_clIS6_EEDaSB_EUlvE_EEEEED2Ev:
	.frame	$sp,0,$31		# vars= 0, regs= 0/0, args= 0, gp= 0
	.mask	0x00000000,0
	.fmask	0x00000000,0
	.set	noreorder
	.set	nomacro
	lui	$2,%hi(_ZTVNSt6thread11_State_implINS_8_InvokerISt5tupleIJZZN8TestCase7runImplIJZN13SpinUseAcqRel3runEvEUlvE_ZNS5_3runEvEUlvE0_EEE10TestResultDpT_ENKUlT_E_clIS6_EEDaSB_EUlvE_EEEEEE+8)
	addiu	$2,$2,%lo(_ZTVNSt6thread11_State_implINS_8_InvokerISt5tupleIJZZN8TestCase7runImplIJZN13SpinUseAcqRel3runEvEUlvE_ZNS5_3runEvEUlvE0_EEE10TestResultDpT_ENKUlT_E_clIS6_EEDaSB_EUlvE_EEEEEE+8)
	j	_ZNSt6thread6_StateD2Ev
	sw	$2,0($4)

	.set	macro
	.set	reorder
	.end	_ZNSt6thread11_State_implINS_8_InvokerISt5tupleIJZZN8TestCase7runImplIJZN13SpinUseAcqRel3runEvEUlvE_ZNS5_3runEvEUlvE0_EEE10TestResultDpT_ENKUlT_E_clIS6_EEDaSB_EUlvE_EEEEED2Ev
	.cfi_endproc
$LFE7135:
	.size	_ZNSt6thread11_State_implINS_8_InvokerISt5tupleIJZZN8TestCase7runImplIJZN13SpinUseAcqRel3runEvEUlvE_ZNS5_3runEvEUlvE0_EEE10TestResultDpT_ENKUlT_E_clIS6_EEDaSB_EUlvE_EEEEED2Ev, .-_ZNSt6thread11_State_implINS_8_InvokerISt5tupleIJZZN8TestCase7runImplIJZN13SpinUseAcqRel3runEvEUlvE_ZNS5_3runEvEUlvE0_EEE10TestResultDpT_ENKUlT_E_clIS6_EEDaSB_EUlvE_EEEEED2Ev
	.weak	_ZNSt6thread11_State_implINS_8_InvokerISt5tupleIJZZN8TestCase7runImplIJZN13SpinUseAcqRel3runEvEUlvE_ZNS5_3runEvEUlvE0_EEE10TestResultDpT_ENKUlT_E_clIS6_EEDaSB_EUlvE_EEEEED1Ev
	_ZNSt6thread11_State_implINS_8_InvokerISt5tupleIJZZN8TestCase7runImplIJZN13SpinUseAcqRel3runEvEUlvE_ZNS5_3runEvEUlvE0_EEE10TestResultDpT_ENKUlT_E_clIS6_EEDaSB_EUlvE_EEEEED1Ev = _ZNSt6thread11_State_implINS_8_InvokerISt5tupleIJZZN8TestCase7runImplIJZN13SpinUseAcqRel3runEvEUlvE_ZNS5_3runEvEUlvE0_EEE10TestResultDpT_ENKUlT_E_clIS6_EEDaSB_EUlvE_EEEEED2Ev
	.section	.text._ZNSt6thread11_State_implINS_8_InvokerISt5tupleIJZZN8TestCase7runImplIJZN13SpinUseAcqRel3runEvEUlvE_ZNS5_3runEvEUlvE0_EEE10TestResultDpT_ENKUlT_E_clIS6_EEDaSB_EUlvE_EEEEED0Ev,"axG",@progbits,_ZNSt6thread11_State_implINS_8_InvokerISt5tupleIJZZN8TestCase7runImplIJZN13SpinUseAcqRel3runEvEUlvE_ZNS5_3runEvEUlvE0_EEE10TestResultDpT_ENKUlT_E_clIS6_EEDaSB_EUlvE_EEEEED5Ev,comdat
	.align	2
	.weak	_ZNSt6thread11_State_implINS_8_InvokerISt5tupleIJZZN8TestCase7runImplIJZN13SpinUseAcqRel3runEvEUlvE_ZNS5_3runEvEUlvE0_EEE10TestResultDpT_ENKUlT_E_clIS6_EEDaSB_EUlvE_EEEEED0Ev
$LFB7137 = .
	.cfi_startproc
	.set	nomips16
	.set	nomicromips
	.ent	_ZNSt6thread11_State_implINS_8_InvokerISt5tupleIJZZN8TestCase7runImplIJZN13SpinUseAcqRel3runEvEUlvE_ZNS5_3runEvEUlvE0_EEE10TestResultDpT_ENKUlT_E_clIS6_EEDaSB_EUlvE_EEEEED0Ev
	.type	_ZNSt6thread11_State_implINS_8_InvokerISt5tupleIJZZN8TestCase7runImplIJZN13SpinUseAcqRel3runEvEUlvE_ZNS5_3runEvEUlvE0_EEE10TestResultDpT_ENKUlT_E_clIS6_EEDaSB_EUlvE_EEEEED0Ev, @function
_ZNSt6thread11_State_implINS_8_InvokerISt5tupleIJZZN8TestCase7runImplIJZN13SpinUseAcqRel3runEvEUlvE_ZNS5_3runEvEUlvE0_EEE10TestResultDpT_ENKUlT_E_clIS6_EEDaSB_EUlvE_EEEEED0Ev:
	.frame	$sp,32,$31		# vars= 0, regs= 2/0, args= 16, gp= 8
	.mask	0x80010000,-4
	.fmask	0x00000000,0
	.set	noreorder
	.set	nomacro
	addiu	$sp,$sp,-32
	.cfi_def_cfa_offset 32
	lui	$2,%hi(_ZTVNSt6thread11_State_implINS_8_InvokerISt5tupleIJZZN8TestCase7runImplIJZN13SpinUseAcqRel3runEvEUlvE_ZNS5_3runEvEUlvE0_EEE10TestResultDpT_ENKUlT_E_clIS6_EEDaSB_EUlvE_EEEEEE+8)
	addiu	$2,$2,%lo(_ZTVNSt6thread11_State_implINS_8_InvokerISt5tupleIJZZN8TestCase7runImplIJZN13SpinUseAcqRel3runEvEUlvE_ZNS5_3runEvEUlvE0_EEE10TestResultDpT_ENKUlT_E_clIS6_EEDaSB_EUlvE_EEEEEE+8)
	sw	$16,24($sp)
	sw	$31,28($sp)
	.cfi_offset 16, -8
	.cfi_offset 31, -4
	move	$16,$4
	jal	_ZNSt6thread6_StateD2Ev
	sw	$2,0($4)

	lw	$31,28($sp)
	move	$4,$16
	lw	$16,24($sp)
	li	$5,20			# 0x14
	.cfi_restore 16
	.cfi_restore 31
	j	_ZdlPvj
	addiu	$sp,$sp,32

	.cfi_def_cfa_offset 0
	.set	macro
	.set	reorder
	.end	_ZNSt6thread11_State_implINS_8_InvokerISt5tupleIJZZN8TestCase7runImplIJZN13SpinUseAcqRel3runEvEUlvE_ZNS5_3runEvEUlvE0_EEE10TestResultDpT_ENKUlT_E_clIS6_EEDaSB_EUlvE_EEEEED0Ev
	.cfi_endproc
$LFE7137:
	.size	_ZNSt6thread11_State_implINS_8_InvokerISt5tupleIJZZN8TestCase7runImplIJZN13SpinUseAcqRel3runEvEUlvE_ZNS5_3runEvEUlvE0_EEE10TestResultDpT_ENKUlT_E_clIS6_EEDaSB_EUlvE_EEEEED0Ev, .-_ZNSt6thread11_State_implINS_8_InvokerISt5tupleIJZZN8TestCase7runImplIJZN13SpinUseAcqRel3runEvEUlvE_ZNS5_3runEvEUlvE0_EEE10TestResultDpT_ENKUlT_E_clIS6_EEDaSB_EUlvE_EEEEED0Ev
	.section	.text._ZNSt6thread11_State_implINS_8_InvokerISt5tupleIJZZN8TestCase7runImplIJZN14SpinUseRelaxed3runEvEUlvE_ZNS5_3runEvEUlvE0_EEE10TestResultDpT_ENKUlT_E_clIS7_EEDaSB_EUlvE_EEEEED2Ev,"axG",@progbits,_ZNSt6thread11_State_implINS_8_InvokerISt5tupleIJZZN8TestCase7runImplIJZN14SpinUseRelaxed3runEvEUlvE_ZNS5_3runEvEUlvE0_EEE10TestResultDpT_ENKUlT_E_clIS7_EEDaSB_EUlvE_EEEEED5Ev,comdat
	.align	2
	.weak	_ZNSt6thread11_State_implINS_8_InvokerISt5tupleIJZZN8TestCase7runImplIJZN14SpinUseRelaxed3runEvEUlvE_ZNS5_3runEvEUlvE0_EEE10TestResultDpT_ENKUlT_E_clIS7_EEDaSB_EUlvE_EEEEED2Ev
$LFB7139 = .
	.cfi_startproc
	.set	nomips16
	.set	nomicromips
	.ent	_ZNSt6thread11_State_implINS_8_InvokerISt5tupleIJZZN8TestCase7runImplIJZN14SpinUseRelaxed3runEvEUlvE_ZNS5_3runEvEUlvE0_EEE10TestResultDpT_ENKUlT_E_clIS7_EEDaSB_EUlvE_EEEEED2Ev
	.type	_ZNSt6thread11_State_implINS_8_InvokerISt5tupleIJZZN8TestCase7runImplIJZN14SpinUseRelaxed3runEvEUlvE_ZNS5_3runEvEUlvE0_EEE10TestResultDpT_ENKUlT_E_clIS7_EEDaSB_EUlvE_EEEEED2Ev, @function
_ZNSt6thread11_State_implINS_8_InvokerISt5tupleIJZZN8TestCase7runImplIJZN14SpinUseRelaxed3runEvEUlvE_ZNS5_3runEvEUlvE0_EEE10TestResultDpT_ENKUlT_E_clIS7_EEDaSB_EUlvE_EEEEED2Ev:
	.frame	$sp,0,$31		# vars= 0, regs= 0/0, args= 0, gp= 0
	.mask	0x00000000,0
	.fmask	0x00000000,0
	.set	noreorder
	.set	nomacro
	lui	$2,%hi(_ZTVNSt6thread11_State_implINS_8_InvokerISt5tupleIJZZN8TestCase7runImplIJZN14SpinUseRelaxed3runEvEUlvE_ZNS5_3runEvEUlvE0_EEE10TestResultDpT_ENKUlT_E_clIS7_EEDaSB_EUlvE_EEEEEE+8)
	addiu	$2,$2,%lo(_ZTVNSt6thread11_State_implINS_8_InvokerISt5tupleIJZZN8TestCase7runImplIJZN14SpinUseRelaxed3runEvEUlvE_ZNS5_3runEvEUlvE0_EEE10TestResultDpT_ENKUlT_E_clIS7_EEDaSB_EUlvE_EEEEEE+8)
	j	_ZNSt6thread6_StateD2Ev
	sw	$2,0($4)

	.set	macro
	.set	reorder
	.end	_ZNSt6thread11_State_implINS_8_InvokerISt5tupleIJZZN8TestCase7runImplIJZN14SpinUseRelaxed3runEvEUlvE_ZNS5_3runEvEUlvE0_EEE10TestResultDpT_ENKUlT_E_clIS7_EEDaSB_EUlvE_EEEEED2Ev
	.cfi_endproc
$LFE7139:
	.size	_ZNSt6thread11_State_implINS_8_InvokerISt5tupleIJZZN8TestCase7runImplIJZN14SpinUseRelaxed3runEvEUlvE_ZNS5_3runEvEUlvE0_EEE10TestResultDpT_ENKUlT_E_clIS7_EEDaSB_EUlvE_EEEEED2Ev, .-_ZNSt6thread11_State_implINS_8_InvokerISt5tupleIJZZN8TestCase7runImplIJZN14SpinUseRelaxed3runEvEUlvE_ZNS5_3runEvEUlvE0_EEE10TestResultDpT_ENKUlT_E_clIS7_EEDaSB_EUlvE_EEEEED2Ev
	.weak	_ZNSt6thread11_State_implINS_8_InvokerISt5tupleIJZZN8TestCase7runImplIJZN14SpinUseRelaxed3runEvEUlvE_ZNS5_3runEvEUlvE0_EEE10TestResultDpT_ENKUlT_E_clIS7_EEDaSB_EUlvE_EEEEED1Ev
	_ZNSt6thread11_State_implINS_8_InvokerISt5tupleIJZZN8TestCase7runImplIJZN14SpinUseRelaxed3runEvEUlvE_ZNS5_3runEvEUlvE0_EEE10TestResultDpT_ENKUlT_E_clIS7_EEDaSB_EUlvE_EEEEED1Ev = _ZNSt6thread11_State_implINS_8_InvokerISt5tupleIJZZN8TestCase7runImplIJZN14SpinUseRelaxed3runEvEUlvE_ZNS5_3runEvEUlvE0_EEE10TestResultDpT_ENKUlT_E_clIS7_EEDaSB_EUlvE_EEEEED2Ev
	.section	.text._ZNSt6thread11_State_implINS_8_InvokerISt5tupleIJZZN8TestCase7runImplIJZN14SpinUseRelaxed3runEvEUlvE_ZNS5_3runEvEUlvE0_EEE10TestResultDpT_ENKUlT_E_clIS7_EEDaSB_EUlvE_EEEEED0Ev,"axG",@progbits,_ZNSt6thread11_State_implINS_8_InvokerISt5tupleIJZZN8TestCase7runImplIJZN14SpinUseRelaxed3runEvEUlvE_ZNS5_3runEvEUlvE0_EEE10TestResultDpT_ENKUlT_E_clIS7_EEDaSB_EUlvE_EEEEED5Ev,comdat
	.align	2
	.weak	_ZNSt6thread11_State_implINS_8_InvokerISt5tupleIJZZN8TestCase7runImplIJZN14SpinUseRelaxed3runEvEUlvE_ZNS5_3runEvEUlvE0_EEE10TestResultDpT_ENKUlT_E_clIS7_EEDaSB_EUlvE_EEEEED0Ev
$LFB7141 = .
	.cfi_startproc
	.set	nomips16
	.set	nomicromips
	.ent	_ZNSt6thread11_State_implINS_8_InvokerISt5tupleIJZZN8TestCase7runImplIJZN14SpinUseRelaxed3runEvEUlvE_ZNS5_3runEvEUlvE0_EEE10TestResultDpT_ENKUlT_E_clIS7_EEDaSB_EUlvE_EEEEED0Ev
	.type	_ZNSt6thread11_State_implINS_8_InvokerISt5tupleIJZZN8TestCase7runImplIJZN14SpinUseRelaxed3runEvEUlvE_ZNS5_3runEvEUlvE0_EEE10TestResultDpT_ENKUlT_E_clIS7_EEDaSB_EUlvE_EEEEED0Ev, @function
_ZNSt6thread11_State_implINS_8_InvokerISt5tupleIJZZN8TestCase7runImplIJZN14SpinUseRelaxed3runEvEUlvE_ZNS5_3runEvEUlvE0_EEE10TestResultDpT_ENKUlT_E_clIS7_EEDaSB_EUlvE_EEEEED0Ev:
	.frame	$sp,32,$31		# vars= 0, regs= 2/0, args= 16, gp= 8
	.mask	0x80010000,-4
	.fmask	0x00000000,0
	.set	noreorder
	.set	nomacro
	addiu	$sp,$sp,-32
	.cfi_def_cfa_offset 32
	lui	$2,%hi(_ZTVNSt6thread11_State_implINS_8_InvokerISt5tupleIJZZN8TestCase7runImplIJZN14SpinUseRelaxed3runEvEUlvE_ZNS5_3runEvEUlvE0_EEE10TestResultDpT_ENKUlT_E_clIS7_EEDaSB_EUlvE_EEEEEE+8)
	addiu	$2,$2,%lo(_ZTVNSt6thread11_State_implINS_8_InvokerISt5tupleIJZZN8TestCase7runImplIJZN14SpinUseRelaxed3runEvEUlvE_ZNS5_3runEvEUlvE0_EEE10TestResultDpT_ENKUlT_E_clIS7_EEDaSB_EUlvE_EEEEEE+8)
	sw	$16,24($sp)
	sw	$31,28($sp)
	.cfi_offset 16, -8
	.cfi_offset 31, -4
	move	$16,$4
	jal	_ZNSt6thread6_StateD2Ev
	sw	$2,0($4)

	lw	$31,28($sp)
	move	$4,$16
	lw	$16,24($sp)
	li	$5,20			# 0x14
	.cfi_restore 16
	.cfi_restore 31
	j	_ZdlPvj
	addiu	$sp,$sp,32

	.cfi_def_cfa_offset 0
	.set	macro
	.set	reorder
	.end	_ZNSt6thread11_State_implINS_8_InvokerISt5tupleIJZZN8TestCase7runImplIJZN14SpinUseRelaxed3runEvEUlvE_ZNS5_3runEvEUlvE0_EEE10TestResultDpT_ENKUlT_E_clIS7_EEDaSB_EUlvE_EEEEED0Ev
	.cfi_endproc
$LFE7141:
	.size	_ZNSt6thread11_State_implINS_8_InvokerISt5tupleIJZZN8TestCase7runImplIJZN14SpinUseRelaxed3runEvEUlvE_ZNS5_3runEvEUlvE0_EEE10TestResultDpT_ENKUlT_E_clIS7_EEDaSB_EUlvE_EEEEED0Ev, .-_ZNSt6thread11_State_implINS_8_InvokerISt5tupleIJZZN8TestCase7runImplIJZN14SpinUseRelaxed3runEvEUlvE_ZNS5_3runEvEUlvE0_EEE10TestResultDpT_ENKUlT_E_clIS7_EEDaSB_EUlvE_EEEEED0Ev
	.section	.text._ZNSt6thread11_State_implINS_8_InvokerISt5tupleIJZZN8TestCase7runImplIJZN14SpinUseRelaxed3runEvEUlvE_ZNS5_3runEvEUlvE0_EEE10TestResultDpT_ENKUlT_E_clIS6_EEDaSB_EUlvE_EEEEED2Ev,"axG",@progbits,_ZNSt6thread11_State_implINS_8_InvokerISt5tupleIJZZN8TestCase7runImplIJZN14SpinUseRelaxed3runEvEUlvE_ZNS5_3runEvEUlvE0_EEE10TestResultDpT_ENKUlT_E_clIS6_EEDaSB_EUlvE_EEEEED5Ev,comdat
	.align	2
	.weak	_ZNSt6thread11_State_implINS_8_InvokerISt5tupleIJZZN8TestCase7runImplIJZN14SpinUseRelaxed3runEvEUlvE_ZNS5_3runEvEUlvE0_EEE10TestResultDpT_ENKUlT_E_clIS6_EEDaSB_EUlvE_EEEEED2Ev
$LFB7143 = .
	.cfi_startproc
	.set	nomips16
	.set	nomicromips
	.ent	_ZNSt6thread11_State_implINS_8_InvokerISt5tupleIJZZN8TestCase7runImplIJZN14SpinUseRelaxed3runEvEUlvE_ZNS5_3runEvEUlvE0_EEE10TestResultDpT_ENKUlT_E_clIS6_EEDaSB_EUlvE_EEEEED2Ev
	.type	_ZNSt6thread11_State_implINS_8_InvokerISt5tupleIJZZN8TestCase7runImplIJZN14SpinUseRelaxed3runEvEUlvE_ZNS5_3runEvEUlvE0_EEE10TestResultDpT_ENKUlT_E_clIS6_EEDaSB_EUlvE_EEEEED2Ev, @function
_ZNSt6thread11_State_implINS_8_InvokerISt5tupleIJZZN8TestCase7runImplIJZN14SpinUseRelaxed3runEvEUlvE_ZNS5_3runEvEUlvE0_EEE10TestResultDpT_ENKUlT_E_clIS6_EEDaSB_EUlvE_EEEEED2Ev:
	.frame	$sp,0,$31		# vars= 0, regs= 0/0, args= 0, gp= 0
	.mask	0x00000000,0
	.fmask	0x00000000,0
	.set	noreorder
	.set	nomacro
	lui	$2,%hi(_ZTVNSt6thread11_State_implINS_8_InvokerISt5tupleIJZZN8TestCase7runImplIJZN14SpinUseRelaxed3runEvEUlvE_ZNS5_3runEvEUlvE0_EEE10TestResultDpT_ENKUlT_E_clIS6_EEDaSB_EUlvE_EEEEEE+8)
	addiu	$2,$2,%lo(_ZTVNSt6thread11_State_implINS_8_InvokerISt5tupleIJZZN8TestCase7runImplIJZN14SpinUseRelaxed3runEvEUlvE_ZNS5_3runEvEUlvE0_EEE10TestResultDpT_ENKUlT_E_clIS6_EEDaSB_EUlvE_EEEEEE+8)
	j	_ZNSt6thread6_StateD2Ev
	sw	$2,0($4)

	.set	macro
	.set	reorder
	.end	_ZNSt6thread11_State_implINS_8_InvokerISt5tupleIJZZN8TestCase7runImplIJZN14SpinUseRelaxed3runEvEUlvE_ZNS5_3runEvEUlvE0_EEE10TestResultDpT_ENKUlT_E_clIS6_EEDaSB_EUlvE_EEEEED2Ev
	.cfi_endproc
$LFE7143:
	.size	_ZNSt6thread11_State_implINS_8_InvokerISt5tupleIJZZN8TestCase7runImplIJZN14SpinUseRelaxed3runEvEUlvE_ZNS5_3runEvEUlvE0_EEE10TestResultDpT_ENKUlT_E_clIS6_EEDaSB_EUlvE_EEEEED2Ev, .-_ZNSt6thread11_State_implINS_8_InvokerISt5tupleIJZZN8TestCase7runImplIJZN14SpinUseRelaxed3runEvEUlvE_ZNS5_3runEvEUlvE0_EEE10TestResultDpT_ENKUlT_E_clIS6_EEDaSB_EUlvE_EEEEED2Ev
	.weak	_ZNSt6thread11_State_implINS_8_InvokerISt5tupleIJZZN8TestCase7runImplIJZN14SpinUseRelaxed3runEvEUlvE_ZNS5_3runEvEUlvE0_EEE10TestResultDpT_ENKUlT_E_clIS6_EEDaSB_EUlvE_EEEEED1Ev
	_ZNSt6thread11_State_implINS_8_InvokerISt5tupleIJZZN8TestCase7runImplIJZN14SpinUseRelaxed3runEvEUlvE_ZNS5_3runEvEUlvE0_EEE10TestResultDpT_ENKUlT_E_clIS6_EEDaSB_EUlvE_EEEEED1Ev = _ZNSt6thread11_State_implINS_8_InvokerISt5tupleIJZZN8TestCase7runImplIJZN14SpinUseRelaxed3runEvEUlvE_ZNS5_3runEvEUlvE0_EEE10TestResultDpT_ENKUlT_E_clIS6_EEDaSB_EUlvE_EEEEED2Ev
	.section	.text._ZNSt6thread11_State_implINS_8_InvokerISt5tupleIJZZN8TestCase7runImplIJZN14SpinUseRelaxed3runEvEUlvE_ZNS5_3runEvEUlvE0_EEE10TestResultDpT_ENKUlT_E_clIS6_EEDaSB_EUlvE_EEEEED0Ev,"axG",@progbits,_ZNSt6thread11_State_implINS_8_InvokerISt5tupleIJZZN8TestCase7runImplIJZN14SpinUseRelaxed3runEvEUlvE_ZNS5_3runEvEUlvE0_EEE10TestResultDpT_ENKUlT_E_clIS6_EEDaSB_EUlvE_EEEEED5Ev,comdat
	.align	2
	.weak	_ZNSt6thread11_State_implINS_8_InvokerISt5tupleIJZZN8TestCase7runImplIJZN14SpinUseRelaxed3runEvEUlvE_ZNS5_3runEvEUlvE0_EEE10TestResultDpT_ENKUlT_E_clIS6_EEDaSB_EUlvE_EEEEED0Ev
$LFB7145 = .
	.cfi_startproc
	.set	nomips16
	.set	nomicromips
	.ent	_ZNSt6thread11_State_implINS_8_InvokerISt5tupleIJZZN8TestCase7runImplIJZN14SpinUseRelaxed3runEvEUlvE_ZNS5_3runEvEUlvE0_EEE10TestResultDpT_ENKUlT_E_clIS6_EEDaSB_EUlvE_EEEEED0Ev
	.type	_ZNSt6thread11_State_implINS_8_InvokerISt5tupleIJZZN8TestCase7runImplIJZN14SpinUseRelaxed3runEvEUlvE_ZNS5_3runEvEUlvE0_EEE10TestResultDpT_ENKUlT_E_clIS6_EEDaSB_EUlvE_EEEEED0Ev, @function
_ZNSt6thread11_State_implINS_8_InvokerISt5tupleIJZZN8TestCase7runImplIJZN14SpinUseRelaxed3runEvEUlvE_ZNS5_3runEvEUlvE0_EEE10TestResultDpT_ENKUlT_E_clIS6_EEDaSB_EUlvE_EEEEED0Ev:
	.frame	$sp,32,$31		# vars= 0, regs= 2/0, args= 16, gp= 8
	.mask	0x80010000,-4
	.fmask	0x00000000,0
	.set	noreorder
	.set	nomacro
	addiu	$sp,$sp,-32
	.cfi_def_cfa_offset 32
	lui	$2,%hi(_ZTVNSt6thread11_State_implINS_8_InvokerISt5tupleIJZZN8TestCase7runImplIJZN14SpinUseRelaxed3runEvEUlvE_ZNS5_3runEvEUlvE0_EEE10TestResultDpT_ENKUlT_E_clIS6_EEDaSB_EUlvE_EEEEEE+8)
	addiu	$2,$2,%lo(_ZTVNSt6thread11_State_implINS_8_InvokerISt5tupleIJZZN8TestCase7runImplIJZN14SpinUseRelaxed3runEvEUlvE_ZNS5_3runEvEUlvE0_EEE10TestResultDpT_ENKUlT_E_clIS6_EEDaSB_EUlvE_EEEEEE+8)
	sw	$16,24($sp)
	sw	$31,28($sp)
	.cfi_offset 16, -8
	.cfi_offset 31, -4
	move	$16,$4
	jal	_ZNSt6thread6_StateD2Ev
	sw	$2,0($4)

	lw	$31,28($sp)
	move	$4,$16
	lw	$16,24($sp)
	li	$5,20			# 0x14
	.cfi_restore 16
	.cfi_restore 31
	j	_ZdlPvj
	addiu	$sp,$sp,32

	.cfi_def_cfa_offset 0
	.set	macro
	.set	reorder
	.end	_ZNSt6thread11_State_implINS_8_InvokerISt5tupleIJZZN8TestCase7runImplIJZN14SpinUseRelaxed3runEvEUlvE_ZNS5_3runEvEUlvE0_EEE10TestResultDpT_ENKUlT_E_clIS6_EEDaSB_EUlvE_EEEEED0Ev
	.cfi_endproc
$LFE7145:
	.size	_ZNSt6thread11_State_implINS_8_InvokerISt5tupleIJZZN8TestCase7runImplIJZN14SpinUseRelaxed3runEvEUlvE_ZNS5_3runEvEUlvE0_EEE10TestResultDpT_ENKUlT_E_clIS6_EEDaSB_EUlvE_EEEEED0Ev, .-_ZNSt6thread11_State_implINS_8_InvokerISt5tupleIJZZN8TestCase7runImplIJZN14SpinUseRelaxed3runEvEUlvE_ZNS5_3runEvEUlvE0_EEE10TestResultDpT_ENKUlT_E_clIS6_EEDaSB_EUlvE_EEEEED0Ev
	.section	.text._ZNSt6thread11_State_implINS_8_InvokerISt5tupleIJZZN8TestCase7runImplIJZN21SpinUseRelaxedRegular3runEvEUlvE_ZNS5_3runEvEUlvE0_EEE10TestResultDpT_ENKUlT_E_clIS7_EEDaSB_EUlvE_EEEEED2Ev,"axG",@progbits,_ZNSt6thread11_State_implINS_8_InvokerISt5tupleIJZZN8TestCase7runImplIJZN21SpinUseRelaxedRegular3runEvEUlvE_ZNS5_3runEvEUlvE0_EEE10TestResultDpT_ENKUlT_E_clIS7_EEDaSB_EUlvE_EEEEED5Ev,comdat
	.align	2
	.weak	_ZNSt6thread11_State_implINS_8_InvokerISt5tupleIJZZN8TestCase7runImplIJZN21SpinUseRelaxedRegular3runEvEUlvE_ZNS5_3runEvEUlvE0_EEE10TestResultDpT_ENKUlT_E_clIS7_EEDaSB_EUlvE_EEEEED2Ev
$LFB7147 = .
	.cfi_startproc
	.set	nomips16
	.set	nomicromips
	.ent	_ZNSt6thread11_State_implINS_8_InvokerISt5tupleIJZZN8TestCase7runImplIJZN21SpinUseRelaxedRegular3runEvEUlvE_ZNS5_3runEvEUlvE0_EEE10TestResultDpT_ENKUlT_E_clIS7_EEDaSB_EUlvE_EEEEED2Ev
	.type	_ZNSt6thread11_State_implINS_8_InvokerISt5tupleIJZZN8TestCase7runImplIJZN21SpinUseRelaxedRegular3runEvEUlvE_ZNS5_3runEvEUlvE0_EEE10TestResultDpT_ENKUlT_E_clIS7_EEDaSB_EUlvE_EEEEED2Ev, @function
_ZNSt6thread11_State_implINS_8_InvokerISt5tupleIJZZN8TestCase7runImplIJZN21SpinUseRelaxedRegular3runEvEUlvE_ZNS5_3runEvEUlvE0_EEE10TestResultDpT_ENKUlT_E_clIS7_EEDaSB_EUlvE_EEEEED2Ev:
	.frame	$sp,0,$31		# vars= 0, regs= 0/0, args= 0, gp= 0
	.mask	0x00000000,0
	.fmask	0x00000000,0
	.set	noreorder
	.set	nomacro
	lui	$2,%hi(_ZTVNSt6thread11_State_implINS_8_InvokerISt5tupleIJZZN8TestCase7runImplIJZN21SpinUseRelaxedRegular3runEvEUlvE_ZNS5_3runEvEUlvE0_EEE10TestResultDpT_ENKUlT_E_clIS7_EEDaSB_EUlvE_EEEEEE+8)
	addiu	$2,$2,%lo(_ZTVNSt6thread11_State_implINS_8_InvokerISt5tupleIJZZN8TestCase7runImplIJZN21SpinUseRelaxedRegular3runEvEUlvE_ZNS5_3runEvEUlvE0_EEE10TestResultDpT_ENKUlT_E_clIS7_EEDaSB_EUlvE_EEEEEE+8)
	j	_ZNSt6thread6_StateD2Ev
	sw	$2,0($4)

	.set	macro
	.set	reorder
	.end	_ZNSt6thread11_State_implINS_8_InvokerISt5tupleIJZZN8TestCase7runImplIJZN21SpinUseRelaxedRegular3runEvEUlvE_ZNS5_3runEvEUlvE0_EEE10TestResultDpT_ENKUlT_E_clIS7_EEDaSB_EUlvE_EEEEED2Ev
	.cfi_endproc
$LFE7147:
	.size	_ZNSt6thread11_State_implINS_8_InvokerISt5tupleIJZZN8TestCase7runImplIJZN21SpinUseRelaxedRegular3runEvEUlvE_ZNS5_3runEvEUlvE0_EEE10TestResultDpT_ENKUlT_E_clIS7_EEDaSB_EUlvE_EEEEED2Ev, .-_ZNSt6thread11_State_implINS_8_InvokerISt5tupleIJZZN8TestCase7runImplIJZN21SpinUseRelaxedRegular3runEvEUlvE_ZNS5_3runEvEUlvE0_EEE10TestResultDpT_ENKUlT_E_clIS7_EEDaSB_EUlvE_EEEEED2Ev
	.weak	_ZNSt6thread11_State_implINS_8_InvokerISt5tupleIJZZN8TestCase7runImplIJZN21SpinUseRelaxedRegular3runEvEUlvE_ZNS5_3runEvEUlvE0_EEE10TestResultDpT_ENKUlT_E_clIS7_EEDaSB_EUlvE_EEEEED1Ev
	_ZNSt6thread11_State_implINS_8_InvokerISt5tupleIJZZN8TestCase7runImplIJZN21SpinUseRelaxedRegular3runEvEUlvE_ZNS5_3runEvEUlvE0_EEE10TestResultDpT_ENKUlT_E_clIS7_EEDaSB_EUlvE_EEEEED1Ev = _ZNSt6thread11_State_implINS_8_InvokerISt5tupleIJZZN8TestCase7runImplIJZN21SpinUseRelaxedRegular3runEvEUlvE_ZNS5_3runEvEUlvE0_EEE10TestResultDpT_ENKUlT_E_clIS7_EEDaSB_EUlvE_EEEEED2Ev
	.section	.text._ZNSt6thread11_State_implINS_8_InvokerISt5tupleIJZZN8TestCase7runImplIJZN21SpinUseRelaxedRegular3runEvEUlvE_ZNS5_3runEvEUlvE0_EEE10TestResultDpT_ENKUlT_E_clIS7_EEDaSB_EUlvE_EEEEED0Ev,"axG",@progbits,_ZNSt6thread11_State_implINS_8_InvokerISt5tupleIJZZN8TestCase7runImplIJZN21SpinUseRelaxedRegular3runEvEUlvE_ZNS5_3runEvEUlvE0_EEE10TestResultDpT_ENKUlT_E_clIS7_EEDaSB_EUlvE_EEEEED5Ev,comdat
	.align	2
	.weak	_ZNSt6thread11_State_implINS_8_InvokerISt5tupleIJZZN8TestCase7runImplIJZN21SpinUseRelaxedRegular3runEvEUlvE_ZNS5_3runEvEUlvE0_EEE10TestResultDpT_ENKUlT_E_clIS7_EEDaSB_EUlvE_EEEEED0Ev
$LFB7149 = .
	.cfi_startproc
	.set	nomips16
	.set	nomicromips
	.ent	_ZNSt6thread11_State_implINS_8_InvokerISt5tupleIJZZN8TestCase7runImplIJZN21SpinUseRelaxedRegular3runEvEUlvE_ZNS5_3runEvEUlvE0_EEE10TestResultDpT_ENKUlT_E_clIS7_EEDaSB_EUlvE_EEEEED0Ev
	.type	_ZNSt6thread11_State_implINS_8_InvokerISt5tupleIJZZN8TestCase7runImplIJZN21SpinUseRelaxedRegular3runEvEUlvE_ZNS5_3runEvEUlvE0_EEE10TestResultDpT_ENKUlT_E_clIS7_EEDaSB_EUlvE_EEEEED0Ev, @function
_ZNSt6thread11_State_implINS_8_InvokerISt5tupleIJZZN8TestCase7runImplIJZN21SpinUseRelaxedRegular3runEvEUlvE_ZNS5_3runEvEUlvE0_EEE10TestResultDpT_ENKUlT_E_clIS7_EEDaSB_EUlvE_EEEEED0Ev:
	.frame	$sp,32,$31		# vars= 0, regs= 2/0, args= 16, gp= 8
	.mask	0x80010000,-4
	.fmask	0x00000000,0
	.set	noreorder
	.set	nomacro
	addiu	$sp,$sp,-32
	.cfi_def_cfa_offset 32
	lui	$2,%hi(_ZTVNSt6thread11_State_implINS_8_InvokerISt5tupleIJZZN8TestCase7runImplIJZN21SpinUseRelaxedRegular3runEvEUlvE_ZNS5_3runEvEUlvE0_EEE10TestResultDpT_ENKUlT_E_clIS7_EEDaSB_EUlvE_EEEEEE+8)
	addiu	$2,$2,%lo(_ZTVNSt6thread11_State_implINS_8_InvokerISt5tupleIJZZN8TestCase7runImplIJZN21SpinUseRelaxedRegular3runEvEUlvE_ZNS5_3runEvEUlvE0_EEE10TestResultDpT_ENKUlT_E_clIS7_EEDaSB_EUlvE_EEEEEE+8)
	sw	$16,24($sp)
	sw	$31,28($sp)
	.cfi_offset 16, -8
	.cfi_offset 31, -4
	move	$16,$4
	jal	_ZNSt6thread6_StateD2Ev
	sw	$2,0($4)

	lw	$31,28($sp)
	move	$4,$16
	lw	$16,24($sp)
	li	$5,20			# 0x14
	.cfi_restore 16
	.cfi_restore 31
	j	_ZdlPvj
	addiu	$sp,$sp,32

	.cfi_def_cfa_offset 0
	.set	macro
	.set	reorder
	.end	_ZNSt6thread11_State_implINS_8_InvokerISt5tupleIJZZN8TestCase7runImplIJZN21SpinUseRelaxedRegular3runEvEUlvE_ZNS5_3runEvEUlvE0_EEE10TestResultDpT_ENKUlT_E_clIS7_EEDaSB_EUlvE_EEEEED0Ev
	.cfi_endproc
$LFE7149:
	.size	_ZNSt6thread11_State_implINS_8_InvokerISt5tupleIJZZN8TestCase7runImplIJZN21SpinUseRelaxedRegular3runEvEUlvE_ZNS5_3runEvEUlvE0_EEE10TestResultDpT_ENKUlT_E_clIS7_EEDaSB_EUlvE_EEEEED0Ev, .-_ZNSt6thread11_State_implINS_8_InvokerISt5tupleIJZZN8TestCase7runImplIJZN21SpinUseRelaxedRegular3runEvEUlvE_ZNS5_3runEvEUlvE0_EEE10TestResultDpT_ENKUlT_E_clIS7_EEDaSB_EUlvE_EEEEED0Ev
	.section	.text._ZNSt6thread11_State_implINS_8_InvokerISt5tupleIJZZN8TestCase7runImplIJZN21SpinUseRelaxedRegular3runEvEUlvE_ZNS5_3runEvEUlvE0_EEE10TestResultDpT_ENKUlT_E_clIS6_EEDaSB_EUlvE_EEEEED2Ev,"axG",@progbits,_ZNSt6thread11_State_implINS_8_InvokerISt5tupleIJZZN8TestCase7runImplIJZN21SpinUseRelaxedRegular3runEvEUlvE_ZNS5_3runEvEUlvE0_EEE10TestResultDpT_ENKUlT_E_clIS6_EEDaSB_EUlvE_EEEEED5Ev,comdat
	.align	2
	.weak	_ZNSt6thread11_State_implINS_8_InvokerISt5tupleIJZZN8TestCase7runImplIJZN21SpinUseRelaxedRegular3runEvEUlvE_ZNS5_3runEvEUlvE0_EEE10TestResultDpT_ENKUlT_E_clIS6_EEDaSB_EUlvE_EEEEED2Ev
$LFB7151 = .
	.cfi_startproc
	.set	nomips16
	.set	nomicromips
	.ent	_ZNSt6thread11_State_implINS_8_InvokerISt5tupleIJZZN8TestCase7runImplIJZN21SpinUseRelaxedRegular3runEvEUlvE_ZNS5_3runEvEUlvE0_EEE10TestResultDpT_ENKUlT_E_clIS6_EEDaSB_EUlvE_EEEEED2Ev
	.type	_ZNSt6thread11_State_implINS_8_InvokerISt5tupleIJZZN8TestCase7runImplIJZN21SpinUseRelaxedRegular3runEvEUlvE_ZNS5_3runEvEUlvE0_EEE10TestResultDpT_ENKUlT_E_clIS6_EEDaSB_EUlvE_EEEEED2Ev, @function
_ZNSt6thread11_State_implINS_8_InvokerISt5tupleIJZZN8TestCase7runImplIJZN21SpinUseRelaxedRegular3runEvEUlvE_ZNS5_3runEvEUlvE0_EEE10TestResultDpT_ENKUlT_E_clIS6_EEDaSB_EUlvE_EEEEED2Ev:
	.frame	$sp,0,$31		# vars= 0, regs= 0/0, args= 0, gp= 0
	.mask	0x00000000,0
	.fmask	0x00000000,0
	.set	noreorder
	.set	nomacro
	lui	$2,%hi(_ZTVNSt6thread11_State_implINS_8_InvokerISt5tupleIJZZN8TestCase7runImplIJZN21SpinUseRelaxedRegular3runEvEUlvE_ZNS5_3runEvEUlvE0_EEE10TestResultDpT_ENKUlT_E_clIS6_EEDaSB_EUlvE_EEEEEE+8)
	addiu	$2,$2,%lo(_ZTVNSt6thread11_State_implINS_8_InvokerISt5tupleIJZZN8TestCase7runImplIJZN21SpinUseRelaxedRegular3runEvEUlvE_ZNS5_3runEvEUlvE0_EEE10TestResultDpT_ENKUlT_E_clIS6_EEDaSB_EUlvE_EEEEEE+8)
	j	_ZNSt6thread6_StateD2Ev
	sw	$2,0($4)

	.set	macro
	.set	reorder
	.end	_ZNSt6thread11_State_implINS_8_InvokerISt5tupleIJZZN8TestCase7runImplIJZN21SpinUseRelaxedRegular3runEvEUlvE_ZNS5_3runEvEUlvE0_EEE10TestResultDpT_ENKUlT_E_clIS6_EEDaSB_EUlvE_EEEEED2Ev
	.cfi_endproc
$LFE7151:
	.size	_ZNSt6thread11_State_implINS_8_InvokerISt5tupleIJZZN8TestCase7runImplIJZN21SpinUseRelaxedRegular3runEvEUlvE_ZNS5_3runEvEUlvE0_EEE10TestResultDpT_ENKUlT_E_clIS6_EEDaSB_EUlvE_EEEEED2Ev, .-_ZNSt6thread11_State_implINS_8_InvokerISt5tupleIJZZN8TestCase7runImplIJZN21SpinUseRelaxedRegular3runEvEUlvE_ZNS5_3runEvEUlvE0_EEE10TestResultDpT_ENKUlT_E_clIS6_EEDaSB_EUlvE_EEEEED2Ev
	.weak	_ZNSt6thread11_State_implINS_8_InvokerISt5tupleIJZZN8TestCase7runImplIJZN21SpinUseRelaxedRegular3runEvEUlvE_ZNS5_3runEvEUlvE0_EEE10TestResultDpT_ENKUlT_E_clIS6_EEDaSB_EUlvE_EEEEED1Ev
	_ZNSt6thread11_State_implINS_8_InvokerISt5tupleIJZZN8TestCase7runImplIJZN21SpinUseRelaxedRegular3runEvEUlvE_ZNS5_3runEvEUlvE0_EEE10TestResultDpT_ENKUlT_E_clIS6_EEDaSB_EUlvE_EEEEED1Ev = _ZNSt6thread11_State_implINS_8_InvokerISt5tupleIJZZN8TestCase7runImplIJZN21SpinUseRelaxedRegular3runEvEUlvE_ZNS5_3runEvEUlvE0_EEE10TestResultDpT_ENKUlT_E_clIS6_EEDaSB_EUlvE_EEEEED2Ev
	.section	.text._ZNSt6thread11_State_implINS_8_InvokerISt5tupleIJZZN8TestCase7runImplIJZN21SpinUseRelaxedRegular3runEvEUlvE_ZNS5_3runEvEUlvE0_EEE10TestResultDpT_ENKUlT_E_clIS6_EEDaSB_EUlvE_EEEEED0Ev,"axG",@progbits,_ZNSt6thread11_State_implINS_8_InvokerISt5tupleIJZZN8TestCase7runImplIJZN21SpinUseRelaxedRegular3runEvEUlvE_ZNS5_3runEvEUlvE0_EEE10TestResultDpT_ENKUlT_E_clIS6_EEDaSB_EUlvE_EEEEED5Ev,comdat
	.align	2
	.weak	_ZNSt6thread11_State_implINS_8_InvokerISt5tupleIJZZN8TestCase7runImplIJZN21SpinUseRelaxedRegular3runEvEUlvE_ZNS5_3runEvEUlvE0_EEE10TestResultDpT_ENKUlT_E_clIS6_EEDaSB_EUlvE_EEEEED0Ev
$LFB7153 = .
	.cfi_startproc
	.set	nomips16
	.set	nomicromips
	.ent	_ZNSt6thread11_State_implINS_8_InvokerISt5tupleIJZZN8TestCase7runImplIJZN21SpinUseRelaxedRegular3runEvEUlvE_ZNS5_3runEvEUlvE0_EEE10TestResultDpT_ENKUlT_E_clIS6_EEDaSB_EUlvE_EEEEED0Ev
	.type	_ZNSt6thread11_State_implINS_8_InvokerISt5tupleIJZZN8TestCase7runImplIJZN21SpinUseRelaxedRegular3runEvEUlvE_ZNS5_3runEvEUlvE0_EEE10TestResultDpT_ENKUlT_E_clIS6_EEDaSB_EUlvE_EEEEED0Ev, @function
_ZNSt6thread11_State_implINS_8_InvokerISt5tupleIJZZN8TestCase7runImplIJZN21SpinUseRelaxedRegular3runEvEUlvE_ZNS5_3runEvEUlvE0_EEE10TestResultDpT_ENKUlT_E_clIS6_EEDaSB_EUlvE_EEEEED0Ev:
	.frame	$sp,32,$31		# vars= 0, regs= 2/0, args= 16, gp= 8
	.mask	0x80010000,-4
	.fmask	0x00000000,0
	.set	noreorder
	.set	nomacro
	addiu	$sp,$sp,-32
	.cfi_def_cfa_offset 32
	lui	$2,%hi(_ZTVNSt6thread11_State_implINS_8_InvokerISt5tupleIJZZN8TestCase7runImplIJZN21SpinUseRelaxedRegular3runEvEUlvE_ZNS5_3runEvEUlvE0_EEE10TestResultDpT_ENKUlT_E_clIS6_EEDaSB_EUlvE_EEEEEE+8)
	addiu	$2,$2,%lo(_ZTVNSt6thread11_State_implINS_8_InvokerISt5tupleIJZZN8TestCase7runImplIJZN21SpinUseRelaxedRegular3runEvEUlvE_ZNS5_3runEvEUlvE0_EEE10TestResultDpT_ENKUlT_E_clIS6_EEDaSB_EUlvE_EEEEEE+8)
	sw	$16,24($sp)
	sw	$31,28($sp)
	.cfi_offset 16, -8
	.cfi_offset 31, -4
	move	$16,$4
	jal	_ZNSt6thread6_StateD2Ev
	sw	$2,0($4)

	lw	$31,28($sp)
	move	$4,$16
	lw	$16,24($sp)
	li	$5,20			# 0x14
	.cfi_restore 16
	.cfi_restore 31
	j	_ZdlPvj
	addiu	$sp,$sp,32

	.cfi_def_cfa_offset 0
	.set	macro
	.set	reorder
	.end	_ZNSt6thread11_State_implINS_8_InvokerISt5tupleIJZZN8TestCase7runImplIJZN21SpinUseRelaxedRegular3runEvEUlvE_ZNS5_3runEvEUlvE0_EEE10TestResultDpT_ENKUlT_E_clIS6_EEDaSB_EUlvE_EEEEED0Ev
	.cfi_endproc
$LFE7153:
	.size	_ZNSt6thread11_State_implINS_8_InvokerISt5tupleIJZZN8TestCase7runImplIJZN21SpinUseRelaxedRegular3runEvEUlvE_ZNS5_3runEvEUlvE0_EEE10TestResultDpT_ENKUlT_E_clIS6_EEDaSB_EUlvE_EEEEED0Ev, .-_ZNSt6thread11_State_implINS_8_InvokerISt5tupleIJZZN8TestCase7runImplIJZN21SpinUseRelaxedRegular3runEvEUlvE_ZNS5_3runEvEUlvE0_EEE10TestResultDpT_ENKUlT_E_clIS6_EEDaSB_EUlvE_EEEEED0Ev
	.section	.text._ZNSt6thread11_State_implINS_8_InvokerISt5tupleIJZZN8TestCase7runImplIJZN15IncrementSeqCst3runEvEUlvE_ZNS5_3runEvEUlvE0_EEE10TestResultDpT_ENKUlT_E_clIS7_EEDaSB_EUlvE_EEEEED2Ev,"axG",@progbits,_ZNSt6thread11_State_implINS_8_InvokerISt5tupleIJZZN8TestCase7runImplIJZN15IncrementSeqCst3runEvEUlvE_ZNS5_3runEvEUlvE0_EEE10TestResultDpT_ENKUlT_E_clIS7_EEDaSB_EUlvE_EEEEED5Ev,comdat
	.align	2
	.weak	_ZNSt6thread11_State_implINS_8_InvokerISt5tupleIJZZN8TestCase7runImplIJZN15IncrementSeqCst3runEvEUlvE_ZNS5_3runEvEUlvE0_EEE10TestResultDpT_ENKUlT_E_clIS7_EEDaSB_EUlvE_EEEEED2Ev
$LFB7155 = .
	.cfi_startproc
	.set	nomips16
	.set	nomicromips
	.ent	_ZNSt6thread11_State_implINS_8_InvokerISt5tupleIJZZN8TestCase7runImplIJZN15IncrementSeqCst3runEvEUlvE_ZNS5_3runEvEUlvE0_EEE10TestResultDpT_ENKUlT_E_clIS7_EEDaSB_EUlvE_EEEEED2Ev
	.type	_ZNSt6thread11_State_implINS_8_InvokerISt5tupleIJZZN8TestCase7runImplIJZN15IncrementSeqCst3runEvEUlvE_ZNS5_3runEvEUlvE0_EEE10TestResultDpT_ENKUlT_E_clIS7_EEDaSB_EUlvE_EEEEED2Ev, @function
_ZNSt6thread11_State_implINS_8_InvokerISt5tupleIJZZN8TestCase7runImplIJZN15IncrementSeqCst3runEvEUlvE_ZNS5_3runEvEUlvE0_EEE10TestResultDpT_ENKUlT_E_clIS7_EEDaSB_EUlvE_EEEEED2Ev:
	.frame	$sp,0,$31		# vars= 0, regs= 0/0, args= 0, gp= 0
	.mask	0x00000000,0
	.fmask	0x00000000,0
	.set	noreorder
	.set	nomacro
	lui	$2,%hi(_ZTVNSt6thread11_State_implINS_8_InvokerISt5tupleIJZZN8TestCase7runImplIJZN15IncrementSeqCst3runEvEUlvE_ZNS5_3runEvEUlvE0_EEE10TestResultDpT_ENKUlT_E_clIS7_EEDaSB_EUlvE_EEEEEE+8)
	addiu	$2,$2,%lo(_ZTVNSt6thread11_State_implINS_8_InvokerISt5tupleIJZZN8TestCase7runImplIJZN15IncrementSeqCst3runEvEUlvE_ZNS5_3runEvEUlvE0_EEE10TestResultDpT_ENKUlT_E_clIS7_EEDaSB_EUlvE_EEEEEE+8)
	j	_ZNSt6thread6_StateD2Ev
	sw	$2,0($4)

	.set	macro
	.set	reorder
	.end	_ZNSt6thread11_State_implINS_8_InvokerISt5tupleIJZZN8TestCase7runImplIJZN15IncrementSeqCst3runEvEUlvE_ZNS5_3runEvEUlvE0_EEE10TestResultDpT_ENKUlT_E_clIS7_EEDaSB_EUlvE_EEEEED2Ev
	.cfi_endproc
$LFE7155:
	.size	_ZNSt6thread11_State_implINS_8_InvokerISt5tupleIJZZN8TestCase7runImplIJZN15IncrementSeqCst3runEvEUlvE_ZNS5_3runEvEUlvE0_EEE10TestResultDpT_ENKUlT_E_clIS7_EEDaSB_EUlvE_EEEEED2Ev, .-_ZNSt6thread11_State_implINS_8_InvokerISt5tupleIJZZN8TestCase7runImplIJZN15IncrementSeqCst3runEvEUlvE_ZNS5_3runEvEUlvE0_EEE10TestResultDpT_ENKUlT_E_clIS7_EEDaSB_EUlvE_EEEEED2Ev
	.weak	_ZNSt6thread11_State_implINS_8_InvokerISt5tupleIJZZN8TestCase7runImplIJZN15IncrementSeqCst3runEvEUlvE_ZNS5_3runEvEUlvE0_EEE10TestResultDpT_ENKUlT_E_clIS7_EEDaSB_EUlvE_EEEEED1Ev
	_ZNSt6thread11_State_implINS_8_InvokerISt5tupleIJZZN8TestCase7runImplIJZN15IncrementSeqCst3runEvEUlvE_ZNS5_3runEvEUlvE0_EEE10TestResultDpT_ENKUlT_E_clIS7_EEDaSB_EUlvE_EEEEED1Ev = _ZNSt6thread11_State_implINS_8_InvokerISt5tupleIJZZN8TestCase7runImplIJZN15IncrementSeqCst3runEvEUlvE_ZNS5_3runEvEUlvE0_EEE10TestResultDpT_ENKUlT_E_clIS7_EEDaSB_EUlvE_EEEEED2Ev
	.section	.text._ZNSt6thread11_State_implINS_8_InvokerISt5tupleIJZZN8TestCase7runImplIJZN15IncrementSeqCst3runEvEUlvE_ZNS5_3runEvEUlvE0_EEE10TestResultDpT_ENKUlT_E_clIS7_EEDaSB_EUlvE_EEEEED0Ev,"axG",@progbits,_ZNSt6thread11_State_implINS_8_InvokerISt5tupleIJZZN8TestCase7runImplIJZN15IncrementSeqCst3runEvEUlvE_ZNS5_3runEvEUlvE0_EEE10TestResultDpT_ENKUlT_E_clIS7_EEDaSB_EUlvE_EEEEED5Ev,comdat
	.align	2
	.weak	_ZNSt6thread11_State_implINS_8_InvokerISt5tupleIJZZN8TestCase7runImplIJZN15IncrementSeqCst3runEvEUlvE_ZNS5_3runEvEUlvE0_EEE10TestResultDpT_ENKUlT_E_clIS7_EEDaSB_EUlvE_EEEEED0Ev
$LFB7157 = .
	.cfi_startproc
	.set	nomips16
	.set	nomicromips
	.ent	_ZNSt6thread11_State_implINS_8_InvokerISt5tupleIJZZN8TestCase7runImplIJZN15IncrementSeqCst3runEvEUlvE_ZNS5_3runEvEUlvE0_EEE10TestResultDpT_ENKUlT_E_clIS7_EEDaSB_EUlvE_EEEEED0Ev
	.type	_ZNSt6thread11_State_implINS_8_InvokerISt5tupleIJZZN8TestCase7runImplIJZN15IncrementSeqCst3runEvEUlvE_ZNS5_3runEvEUlvE0_EEE10TestResultDpT_ENKUlT_E_clIS7_EEDaSB_EUlvE_EEEEED0Ev, @function
_ZNSt6thread11_State_implINS_8_InvokerISt5tupleIJZZN8TestCase7runImplIJZN15IncrementSeqCst3runEvEUlvE_ZNS5_3runEvEUlvE0_EEE10TestResultDpT_ENKUlT_E_clIS7_EEDaSB_EUlvE_EEEEED0Ev:
	.frame	$sp,32,$31		# vars= 0, regs= 2/0, args= 16, gp= 8
	.mask	0x80010000,-4
	.fmask	0x00000000,0
	.set	noreorder
	.set	nomacro
	addiu	$sp,$sp,-32
	.cfi_def_cfa_offset 32
	lui	$2,%hi(_ZTVNSt6thread11_State_implINS_8_InvokerISt5tupleIJZZN8TestCase7runImplIJZN15IncrementSeqCst3runEvEUlvE_ZNS5_3runEvEUlvE0_EEE10TestResultDpT_ENKUlT_E_clIS7_EEDaSB_EUlvE_EEEEEE+8)
	addiu	$2,$2,%lo(_ZTVNSt6thread11_State_implINS_8_InvokerISt5tupleIJZZN8TestCase7runImplIJZN15IncrementSeqCst3runEvEUlvE_ZNS5_3runEvEUlvE0_EEE10TestResultDpT_ENKUlT_E_clIS7_EEDaSB_EUlvE_EEEEEE+8)
	sw	$16,24($sp)
	sw	$31,28($sp)
	.cfi_offset 16, -8
	.cfi_offset 31, -4
	move	$16,$4
	jal	_ZNSt6thread6_StateD2Ev
	sw	$2,0($4)

	lw	$31,28($sp)
	move	$4,$16
	lw	$16,24($sp)
	li	$5,20			# 0x14
	.cfi_restore 16
	.cfi_restore 31
	j	_ZdlPvj
	addiu	$sp,$sp,32

	.cfi_def_cfa_offset 0
	.set	macro
	.set	reorder
	.end	_ZNSt6thread11_State_implINS_8_InvokerISt5tupleIJZZN8TestCase7runImplIJZN15IncrementSeqCst3runEvEUlvE_ZNS5_3runEvEUlvE0_EEE10TestResultDpT_ENKUlT_E_clIS7_EEDaSB_EUlvE_EEEEED0Ev
	.cfi_endproc
$LFE7157:
	.size	_ZNSt6thread11_State_implINS_8_InvokerISt5tupleIJZZN8TestCase7runImplIJZN15IncrementSeqCst3runEvEUlvE_ZNS5_3runEvEUlvE0_EEE10TestResultDpT_ENKUlT_E_clIS7_EEDaSB_EUlvE_EEEEED0Ev, .-_ZNSt6thread11_State_implINS_8_InvokerISt5tupleIJZZN8TestCase7runImplIJZN15IncrementSeqCst3runEvEUlvE_ZNS5_3runEvEUlvE0_EEE10TestResultDpT_ENKUlT_E_clIS7_EEDaSB_EUlvE_EEEEED0Ev
	.section	.text._ZNSt6thread11_State_implINS_8_InvokerISt5tupleIJZZN8TestCase7runImplIJZN15IncrementSeqCst3runEvEUlvE_ZNS5_3runEvEUlvE0_EEE10TestResultDpT_ENKUlT_E_clIS6_EEDaSB_EUlvE_EEEEED2Ev,"axG",@progbits,_ZNSt6thread11_State_implINS_8_InvokerISt5tupleIJZZN8TestCase7runImplIJZN15IncrementSeqCst3runEvEUlvE_ZNS5_3runEvEUlvE0_EEE10TestResultDpT_ENKUlT_E_clIS6_EEDaSB_EUlvE_EEEEED5Ev,comdat
	.align	2
	.weak	_ZNSt6thread11_State_implINS_8_InvokerISt5tupleIJZZN8TestCase7runImplIJZN15IncrementSeqCst3runEvEUlvE_ZNS5_3runEvEUlvE0_EEE10TestResultDpT_ENKUlT_E_clIS6_EEDaSB_EUlvE_EEEEED2Ev
$LFB7159 = .
	.cfi_startproc
	.set	nomips16
	.set	nomicromips
	.ent	_ZNSt6thread11_State_implINS_8_InvokerISt5tupleIJZZN8TestCase7runImplIJZN15IncrementSeqCst3runEvEUlvE_ZNS5_3runEvEUlvE0_EEE10TestResultDpT_ENKUlT_E_clIS6_EEDaSB_EUlvE_EEEEED2Ev
	.type	_ZNSt6thread11_State_implINS_8_InvokerISt5tupleIJZZN8TestCase7runImplIJZN15IncrementSeqCst3runEvEUlvE_ZNS5_3runEvEUlvE0_EEE10TestResultDpT_ENKUlT_E_clIS6_EEDaSB_EUlvE_EEEEED2Ev, @function
_ZNSt6thread11_State_implINS_8_InvokerISt5tupleIJZZN8TestCase7runImplIJZN15IncrementSeqCst3runEvEUlvE_ZNS5_3runEvEUlvE0_EEE10TestResultDpT_ENKUlT_E_clIS6_EEDaSB_EUlvE_EEEEED2Ev:
	.frame	$sp,0,$31		# vars= 0, regs= 0/0, args= 0, gp= 0
	.mask	0x00000000,0
	.fmask	0x00000000,0
	.set	noreorder
	.set	nomacro
	lui	$2,%hi(_ZTVNSt6thread11_State_implINS_8_InvokerISt5tupleIJZZN8TestCase7runImplIJZN15IncrementSeqCst3runEvEUlvE_ZNS5_3runEvEUlvE0_EEE10TestResultDpT_ENKUlT_E_clIS6_EEDaSB_EUlvE_EEEEEE+8)
	addiu	$2,$2,%lo(_ZTVNSt6thread11_State_implINS_8_InvokerISt5tupleIJZZN8TestCase7runImplIJZN15IncrementSeqCst3runEvEUlvE_ZNS5_3runEvEUlvE0_EEE10TestResultDpT_ENKUlT_E_clIS6_EEDaSB_EUlvE_EEEEEE+8)
	j	_ZNSt6thread6_StateD2Ev
	sw	$2,0($4)

	.set	macro
	.set	reorder
	.end	_ZNSt6thread11_State_implINS_8_InvokerISt5tupleIJZZN8TestCase7runImplIJZN15IncrementSeqCst3runEvEUlvE_ZNS5_3runEvEUlvE0_EEE10TestResultDpT_ENKUlT_E_clIS6_EEDaSB_EUlvE_EEEEED2Ev
	.cfi_endproc
$LFE7159:
	.size	_ZNSt6thread11_State_implINS_8_InvokerISt5tupleIJZZN8TestCase7runImplIJZN15IncrementSeqCst3runEvEUlvE_ZNS5_3runEvEUlvE0_EEE10TestResultDpT_ENKUlT_E_clIS6_EEDaSB_EUlvE_EEEEED2Ev, .-_ZNSt6thread11_State_implINS_8_InvokerISt5tupleIJZZN8TestCase7runImplIJZN15IncrementSeqCst3runEvEUlvE_ZNS5_3runEvEUlvE0_EEE10TestResultDpT_ENKUlT_E_clIS6_EEDaSB_EUlvE_EEEEED2Ev
	.weak	_ZNSt6thread11_State_implINS_8_InvokerISt5tupleIJZZN8TestCase7runImplIJZN15IncrementSeqCst3runEvEUlvE_ZNS5_3runEvEUlvE0_EEE10TestResultDpT_ENKUlT_E_clIS6_EEDaSB_EUlvE_EEEEED1Ev
	_ZNSt6thread11_State_implINS_8_InvokerISt5tupleIJZZN8TestCase7runImplIJZN15IncrementSeqCst3runEvEUlvE_ZNS5_3runEvEUlvE0_EEE10TestResultDpT_ENKUlT_E_clIS6_EEDaSB_EUlvE_EEEEED1Ev = _ZNSt6thread11_State_implINS_8_InvokerISt5tupleIJZZN8TestCase7runImplIJZN15IncrementSeqCst3runEvEUlvE_ZNS5_3runEvEUlvE0_EEE10TestResultDpT_ENKUlT_E_clIS6_EEDaSB_EUlvE_EEEEED2Ev
	.section	.text._ZNSt6thread11_State_implINS_8_InvokerISt5tupleIJZZN8TestCase7runImplIJZN15IncrementSeqCst3runEvEUlvE_ZNS5_3runEvEUlvE0_EEE10TestResultDpT_ENKUlT_E_clIS6_EEDaSB_EUlvE_EEEEED0Ev,"axG",@progbits,_ZNSt6thread11_State_implINS_8_InvokerISt5tupleIJZZN8TestCase7runImplIJZN15IncrementSeqCst3runEvEUlvE_ZNS5_3runEvEUlvE0_EEE10TestResultDpT_ENKUlT_E_clIS6_EEDaSB_EUlvE_EEEEED5Ev,comdat
	.align	2
	.weak	_ZNSt6thread11_State_implINS_8_InvokerISt5tupleIJZZN8TestCase7runImplIJZN15IncrementSeqCst3runEvEUlvE_ZNS5_3runEvEUlvE0_EEE10TestResultDpT_ENKUlT_E_clIS6_EEDaSB_EUlvE_EEEEED0Ev
$LFB7161 = .
	.cfi_startproc
	.set	nomips16
	.set	nomicromips
	.ent	_ZNSt6thread11_State_implINS_8_InvokerISt5tupleIJZZN8TestCase7runImplIJZN15IncrementSeqCst3runEvEUlvE_ZNS5_3runEvEUlvE0_EEE10TestResultDpT_ENKUlT_E_clIS6_EEDaSB_EUlvE_EEEEED0Ev
	.type	_ZNSt6thread11_State_implINS_8_InvokerISt5tupleIJZZN8TestCase7runImplIJZN15IncrementSeqCst3runEvEUlvE_ZNS5_3runEvEUlvE0_EEE10TestResultDpT_ENKUlT_E_clIS6_EEDaSB_EUlvE_EEEEED0Ev, @function
_ZNSt6thread11_State_implINS_8_InvokerISt5tupleIJZZN8TestCase7runImplIJZN15IncrementSeqCst3runEvEUlvE_ZNS5_3runEvEUlvE0_EEE10TestResultDpT_ENKUlT_E_clIS6_EEDaSB_EUlvE_EEEEED0Ev:
	.frame	$sp,32,$31		# vars= 0, regs= 2/0, args= 16, gp= 8
	.mask	0x80010000,-4
	.fmask	0x00000000,0
	.set	noreorder
	.set	nomacro
	addiu	$sp,$sp,-32
	.cfi_def_cfa_offset 32
	lui	$2,%hi(_ZTVNSt6thread11_State_implINS_8_InvokerISt5tupleIJZZN8TestCase7runImplIJZN15IncrementSeqCst3runEvEUlvE_ZNS5_3runEvEUlvE0_EEE10TestResultDpT_ENKUlT_E_clIS6_EEDaSB_EUlvE_EEEEEE+8)
	addiu	$2,$2,%lo(_ZTVNSt6thread11_State_implINS_8_InvokerISt5tupleIJZZN8TestCase7runImplIJZN15IncrementSeqCst3runEvEUlvE_ZNS5_3runEvEUlvE0_EEE10TestResultDpT_ENKUlT_E_clIS6_EEDaSB_EUlvE_EEEEEE+8)
	sw	$16,24($sp)
	sw	$31,28($sp)
	.cfi_offset 16, -8
	.cfi_offset 31, -4
	move	$16,$4
	jal	_ZNSt6thread6_StateD2Ev
	sw	$2,0($4)

	lw	$31,28($sp)
	move	$4,$16
	lw	$16,24($sp)
	li	$5,20			# 0x14
	.cfi_restore 16
	.cfi_restore 31
	j	_ZdlPvj
	addiu	$sp,$sp,32

	.cfi_def_cfa_offset 0
	.set	macro
	.set	reorder
	.end	_ZNSt6thread11_State_implINS_8_InvokerISt5tupleIJZZN8TestCase7runImplIJZN15IncrementSeqCst3runEvEUlvE_ZNS5_3runEvEUlvE0_EEE10TestResultDpT_ENKUlT_E_clIS6_EEDaSB_EUlvE_EEEEED0Ev
	.cfi_endproc
$LFE7161:
	.size	_ZNSt6thread11_State_implINS_8_InvokerISt5tupleIJZZN8TestCase7runImplIJZN15IncrementSeqCst3runEvEUlvE_ZNS5_3runEvEUlvE0_EEE10TestResultDpT_ENKUlT_E_clIS6_EEDaSB_EUlvE_EEEEED0Ev, .-_ZNSt6thread11_State_implINS_8_InvokerISt5tupleIJZZN8TestCase7runImplIJZN15IncrementSeqCst3runEvEUlvE_ZNS5_3runEvEUlvE0_EEE10TestResultDpT_ENKUlT_E_clIS6_EEDaSB_EUlvE_EEEEED0Ev
	.section	.text._ZNSt6thread11_State_implINS_8_InvokerISt5tupleIJZZN8TestCase7runImplIJZN16IncrementRelaxed3runEvEUlvE_ZNS5_3runEvEUlvE0_EEE10TestResultDpT_ENKUlT_E_clIS7_EEDaSB_EUlvE_EEEEED2Ev,"axG",@progbits,_ZNSt6thread11_State_implINS_8_InvokerISt5tupleIJZZN8TestCase7runImplIJZN16IncrementRelaxed3runEvEUlvE_ZNS5_3runEvEUlvE0_EEE10TestResultDpT_ENKUlT_E_clIS7_EEDaSB_EUlvE_EEEEED5Ev,comdat
	.align	2
	.weak	_ZNSt6thread11_State_implINS_8_InvokerISt5tupleIJZZN8TestCase7runImplIJZN16IncrementRelaxed3runEvEUlvE_ZNS5_3runEvEUlvE0_EEE10TestResultDpT_ENKUlT_E_clIS7_EEDaSB_EUlvE_EEEEED2Ev
$LFB7163 = .
	.cfi_startproc
	.set	nomips16
	.set	nomicromips
	.ent	_ZNSt6thread11_State_implINS_8_InvokerISt5tupleIJZZN8TestCase7runImplIJZN16IncrementRelaxed3runEvEUlvE_ZNS5_3runEvEUlvE0_EEE10TestResultDpT_ENKUlT_E_clIS7_EEDaSB_EUlvE_EEEEED2Ev
	.type	_ZNSt6thread11_State_implINS_8_InvokerISt5tupleIJZZN8TestCase7runImplIJZN16IncrementRelaxed3runEvEUlvE_ZNS5_3runEvEUlvE0_EEE10TestResultDpT_ENKUlT_E_clIS7_EEDaSB_EUlvE_EEEEED2Ev, @function
_ZNSt6thread11_State_implINS_8_InvokerISt5tupleIJZZN8TestCase7runImplIJZN16IncrementRelaxed3runEvEUlvE_ZNS5_3runEvEUlvE0_EEE10TestResultDpT_ENKUlT_E_clIS7_EEDaSB_EUlvE_EEEEED2Ev:
	.frame	$sp,0,$31		# vars= 0, regs= 0/0, args= 0, gp= 0
	.mask	0x00000000,0
	.fmask	0x00000000,0
	.set	noreorder
	.set	nomacro
	lui	$2,%hi(_ZTVNSt6thread11_State_implINS_8_InvokerISt5tupleIJZZN8TestCase7runImplIJZN16IncrementRelaxed3runEvEUlvE_ZNS5_3runEvEUlvE0_EEE10TestResultDpT_ENKUlT_E_clIS7_EEDaSB_EUlvE_EEEEEE+8)
	addiu	$2,$2,%lo(_ZTVNSt6thread11_State_implINS_8_InvokerISt5tupleIJZZN8TestCase7runImplIJZN16IncrementRelaxed3runEvEUlvE_ZNS5_3runEvEUlvE0_EEE10TestResultDpT_ENKUlT_E_clIS7_EEDaSB_EUlvE_EEEEEE+8)
	j	_ZNSt6thread6_StateD2Ev
	sw	$2,0($4)

	.set	macro
	.set	reorder
	.end	_ZNSt6thread11_State_implINS_8_InvokerISt5tupleIJZZN8TestCase7runImplIJZN16IncrementRelaxed3runEvEUlvE_ZNS5_3runEvEUlvE0_EEE10TestResultDpT_ENKUlT_E_clIS7_EEDaSB_EUlvE_EEEEED2Ev
	.cfi_endproc
$LFE7163:
	.size	_ZNSt6thread11_State_implINS_8_InvokerISt5tupleIJZZN8TestCase7runImplIJZN16IncrementRelaxed3runEvEUlvE_ZNS5_3runEvEUlvE0_EEE10TestResultDpT_ENKUlT_E_clIS7_EEDaSB_EUlvE_EEEEED2Ev, .-_ZNSt6thread11_State_implINS_8_InvokerISt5tupleIJZZN8TestCase7runImplIJZN16IncrementRelaxed3runEvEUlvE_ZNS5_3runEvEUlvE0_EEE10TestResultDpT_ENKUlT_E_clIS7_EEDaSB_EUlvE_EEEEED2Ev
	.weak	_ZNSt6thread11_State_implINS_8_InvokerISt5tupleIJZZN8TestCase7runImplIJZN16IncrementRelaxed3runEvEUlvE_ZNS5_3runEvEUlvE0_EEE10TestResultDpT_ENKUlT_E_clIS7_EEDaSB_EUlvE_EEEEED1Ev
	_ZNSt6thread11_State_implINS_8_InvokerISt5tupleIJZZN8TestCase7runImplIJZN16IncrementRelaxed3runEvEUlvE_ZNS5_3runEvEUlvE0_EEE10TestResultDpT_ENKUlT_E_clIS7_EEDaSB_EUlvE_EEEEED1Ev = _ZNSt6thread11_State_implINS_8_InvokerISt5tupleIJZZN8TestCase7runImplIJZN16IncrementRelaxed3runEvEUlvE_ZNS5_3runEvEUlvE0_EEE10TestResultDpT_ENKUlT_E_clIS7_EEDaSB_EUlvE_EEEEED2Ev
	.section	.text._ZNSt6thread11_State_implINS_8_InvokerISt5tupleIJZZN8TestCase7runImplIJZN16IncrementRelaxed3runEvEUlvE_ZNS5_3runEvEUlvE0_EEE10TestResultDpT_ENKUlT_E_clIS7_EEDaSB_EUlvE_EEEEED0Ev,"axG",@progbits,_ZNSt6thread11_State_implINS_8_InvokerISt5tupleIJZZN8TestCase7runImplIJZN16IncrementRelaxed3runEvEUlvE_ZNS5_3runEvEUlvE0_EEE10TestResultDpT_ENKUlT_E_clIS7_EEDaSB_EUlvE_EEEEED5Ev,comdat
	.align	2
	.weak	_ZNSt6thread11_State_implINS_8_InvokerISt5tupleIJZZN8TestCase7runImplIJZN16IncrementRelaxed3runEvEUlvE_ZNS5_3runEvEUlvE0_EEE10TestResultDpT_ENKUlT_E_clIS7_EEDaSB_EUlvE_EEEEED0Ev
$LFB7165 = .
	.cfi_startproc
	.set	nomips16
	.set	nomicromips
	.ent	_ZNSt6thread11_State_implINS_8_InvokerISt5tupleIJZZN8TestCase7runImplIJZN16IncrementRelaxed3runEvEUlvE_ZNS5_3runEvEUlvE0_EEE10TestResultDpT_ENKUlT_E_clIS7_EEDaSB_EUlvE_EEEEED0Ev
	.type	_ZNSt6thread11_State_implINS_8_InvokerISt5tupleIJZZN8TestCase7runImplIJZN16IncrementRelaxed3runEvEUlvE_ZNS5_3runEvEUlvE0_EEE10TestResultDpT_ENKUlT_E_clIS7_EEDaSB_EUlvE_EEEEED0Ev, @function
_ZNSt6thread11_State_implINS_8_InvokerISt5tupleIJZZN8TestCase7runImplIJZN16IncrementRelaxed3runEvEUlvE_ZNS5_3runEvEUlvE0_EEE10TestResultDpT_ENKUlT_E_clIS7_EEDaSB_EUlvE_EEEEED0Ev:
	.frame	$sp,32,$31		# vars= 0, regs= 2/0, args= 16, gp= 8
	.mask	0x80010000,-4
	.fmask	0x00000000,0
	.set	noreorder
	.set	nomacro
	addiu	$sp,$sp,-32
	.cfi_def_cfa_offset 32
	lui	$2,%hi(_ZTVNSt6thread11_State_implINS_8_InvokerISt5tupleIJZZN8TestCase7runImplIJZN16IncrementRelaxed3runEvEUlvE_ZNS5_3runEvEUlvE0_EEE10TestResultDpT_ENKUlT_E_clIS7_EEDaSB_EUlvE_EEEEEE+8)
	addiu	$2,$2,%lo(_ZTVNSt6thread11_State_implINS_8_InvokerISt5tupleIJZZN8TestCase7runImplIJZN16IncrementRelaxed3runEvEUlvE_ZNS5_3runEvEUlvE0_EEE10TestResultDpT_ENKUlT_E_clIS7_EEDaSB_EUlvE_EEEEEE+8)
	sw	$16,24($sp)
	sw	$31,28($sp)
	.cfi_offset 16, -8
	.cfi_offset 31, -4
	move	$16,$4
	jal	_ZNSt6thread6_StateD2Ev
	sw	$2,0($4)

	lw	$31,28($sp)
	move	$4,$16
	lw	$16,24($sp)
	li	$5,20			# 0x14
	.cfi_restore 16
	.cfi_restore 31
	j	_ZdlPvj
	addiu	$sp,$sp,32

	.cfi_def_cfa_offset 0
	.set	macro
	.set	reorder
	.end	_ZNSt6thread11_State_implINS_8_InvokerISt5tupleIJZZN8TestCase7runImplIJZN16IncrementRelaxed3runEvEUlvE_ZNS5_3runEvEUlvE0_EEE10TestResultDpT_ENKUlT_E_clIS7_EEDaSB_EUlvE_EEEEED0Ev
	.cfi_endproc
$LFE7165:
	.size	_ZNSt6thread11_State_implINS_8_InvokerISt5tupleIJZZN8TestCase7runImplIJZN16IncrementRelaxed3runEvEUlvE_ZNS5_3runEvEUlvE0_EEE10TestResultDpT_ENKUlT_E_clIS7_EEDaSB_EUlvE_EEEEED0Ev, .-_ZNSt6thread11_State_implINS_8_InvokerISt5tupleIJZZN8TestCase7runImplIJZN16IncrementRelaxed3runEvEUlvE_ZNS5_3runEvEUlvE0_EEE10TestResultDpT_ENKUlT_E_clIS7_EEDaSB_EUlvE_EEEEED0Ev
	.section	.text._ZNSt6thread11_State_implINS_8_InvokerISt5tupleIJZZN8TestCase7runImplIJZN16IncrementRelaxed3runEvEUlvE_ZNS5_3runEvEUlvE0_EEE10TestResultDpT_ENKUlT_E_clIS6_EEDaSB_EUlvE_EEEEED2Ev,"axG",@progbits,_ZNSt6thread11_State_implINS_8_InvokerISt5tupleIJZZN8TestCase7runImplIJZN16IncrementRelaxed3runEvEUlvE_ZNS5_3runEvEUlvE0_EEE10TestResultDpT_ENKUlT_E_clIS6_EEDaSB_EUlvE_EEEEED5Ev,comdat
	.align	2
	.weak	_ZNSt6thread11_State_implINS_8_InvokerISt5tupleIJZZN8TestCase7runImplIJZN16IncrementRelaxed3runEvEUlvE_ZNS5_3runEvEUlvE0_EEE10TestResultDpT_ENKUlT_E_clIS6_EEDaSB_EUlvE_EEEEED2Ev
$LFB7167 = .
	.cfi_startproc
	.set	nomips16
	.set	nomicromips
	.ent	_ZNSt6thread11_State_implINS_8_InvokerISt5tupleIJZZN8TestCase7runImplIJZN16IncrementRelaxed3runEvEUlvE_ZNS5_3runEvEUlvE0_EEE10TestResultDpT_ENKUlT_E_clIS6_EEDaSB_EUlvE_EEEEED2Ev
	.type	_ZNSt6thread11_State_implINS_8_InvokerISt5tupleIJZZN8TestCase7runImplIJZN16IncrementRelaxed3runEvEUlvE_ZNS5_3runEvEUlvE0_EEE10TestResultDpT_ENKUlT_E_clIS6_EEDaSB_EUlvE_EEEEED2Ev, @function
_ZNSt6thread11_State_implINS_8_InvokerISt5tupleIJZZN8TestCase7runImplIJZN16IncrementRelaxed3runEvEUlvE_ZNS5_3runEvEUlvE0_EEE10TestResultDpT_ENKUlT_E_clIS6_EEDaSB_EUlvE_EEEEED2Ev:
	.frame	$sp,0,$31		# vars= 0, regs= 0/0, args= 0, gp= 0
	.mask	0x00000000,0
	.fmask	0x00000000,0
	.set	noreorder
	.set	nomacro
	lui	$2,%hi(_ZTVNSt6thread11_State_implINS_8_InvokerISt5tupleIJZZN8TestCase7runImplIJZN16IncrementRelaxed3runEvEUlvE_ZNS5_3runEvEUlvE0_EEE10TestResultDpT_ENKUlT_E_clIS6_EEDaSB_EUlvE_EEEEEE+8)
	addiu	$2,$2,%lo(_ZTVNSt6thread11_State_implINS_8_InvokerISt5tupleIJZZN8TestCase7runImplIJZN16IncrementRelaxed3runEvEUlvE_ZNS5_3runEvEUlvE0_EEE10TestResultDpT_ENKUlT_E_clIS6_EEDaSB_EUlvE_EEEEEE+8)
	j	_ZNSt6thread6_StateD2Ev
	sw	$2,0($4)

	.set	macro
	.set	reorder
	.end	_ZNSt6thread11_State_implINS_8_InvokerISt5tupleIJZZN8TestCase7runImplIJZN16IncrementRelaxed3runEvEUlvE_ZNS5_3runEvEUlvE0_EEE10TestResultDpT_ENKUlT_E_clIS6_EEDaSB_EUlvE_EEEEED2Ev
	.cfi_endproc
$LFE7167:
	.size	_ZNSt6thread11_State_implINS_8_InvokerISt5tupleIJZZN8TestCase7runImplIJZN16IncrementRelaxed3runEvEUlvE_ZNS5_3runEvEUlvE0_EEE10TestResultDpT_ENKUlT_E_clIS6_EEDaSB_EUlvE_EEEEED2Ev, .-_ZNSt6thread11_State_implINS_8_InvokerISt5tupleIJZZN8TestCase7runImplIJZN16IncrementRelaxed3runEvEUlvE_ZNS5_3runEvEUlvE0_EEE10TestResultDpT_ENKUlT_E_clIS6_EEDaSB_EUlvE_EEEEED2Ev
	.weak	_ZNSt6thread11_State_implINS_8_InvokerISt5tupleIJZZN8TestCase7runImplIJZN16IncrementRelaxed3runEvEUlvE_ZNS5_3runEvEUlvE0_EEE10TestResultDpT_ENKUlT_E_clIS6_EEDaSB_EUlvE_EEEEED1Ev
	_ZNSt6thread11_State_implINS_8_InvokerISt5tupleIJZZN8TestCase7runImplIJZN16IncrementRelaxed3runEvEUlvE_ZNS5_3runEvEUlvE0_EEE10TestResultDpT_ENKUlT_E_clIS6_EEDaSB_EUlvE_EEEEED1Ev = _ZNSt6thread11_State_implINS_8_InvokerISt5tupleIJZZN8TestCase7runImplIJZN16IncrementRelaxed3runEvEUlvE_ZNS5_3runEvEUlvE0_EEE10TestResultDpT_ENKUlT_E_clIS6_EEDaSB_EUlvE_EEEEED2Ev
	.section	.text._ZNSt6thread11_State_implINS_8_InvokerISt5tupleIJZZN8TestCase7runImplIJZN16IncrementRelaxed3runEvEUlvE_ZNS5_3runEvEUlvE0_EEE10TestResultDpT_ENKUlT_E_clIS6_EEDaSB_EUlvE_EEEEED0Ev,"axG",@progbits,_ZNSt6thread11_State_implINS_8_InvokerISt5tupleIJZZN8TestCase7runImplIJZN16IncrementRelaxed3runEvEUlvE_ZNS5_3runEvEUlvE0_EEE10TestResultDpT_ENKUlT_E_clIS6_EEDaSB_EUlvE_EEEEED5Ev,comdat
	.align	2
	.weak	_ZNSt6thread11_State_implINS_8_InvokerISt5tupleIJZZN8TestCase7runImplIJZN16IncrementRelaxed3runEvEUlvE_ZNS5_3runEvEUlvE0_EEE10TestResultDpT_ENKUlT_E_clIS6_EEDaSB_EUlvE_EEEEED0Ev
$LFB7169 = .
	.cfi_startproc
	.set	nomips16
	.set	nomicromips
	.ent	_ZNSt6thread11_State_implINS_8_InvokerISt5tupleIJZZN8TestCase7runImplIJZN16IncrementRelaxed3runEvEUlvE_ZNS5_3runEvEUlvE0_EEE10TestResultDpT_ENKUlT_E_clIS6_EEDaSB_EUlvE_EEEEED0Ev
	.type	_ZNSt6thread11_State_implINS_8_InvokerISt5tupleIJZZN8TestCase7runImplIJZN16IncrementRelaxed3runEvEUlvE_ZNS5_3runEvEUlvE0_EEE10TestResultDpT_ENKUlT_E_clIS6_EEDaSB_EUlvE_EEEEED0Ev, @function
_ZNSt6thread11_State_implINS_8_InvokerISt5tupleIJZZN8TestCase7runImplIJZN16IncrementRelaxed3runEvEUlvE_ZNS5_3runEvEUlvE0_EEE10TestResultDpT_ENKUlT_E_clIS6_EEDaSB_EUlvE_EEEEED0Ev:
	.frame	$sp,32,$31		# vars= 0, regs= 2/0, args= 16, gp= 8
	.mask	0x80010000,-4
	.fmask	0x00000000,0
	.set	noreorder
	.set	nomacro
	addiu	$sp,$sp,-32
	.cfi_def_cfa_offset 32
	lui	$2,%hi(_ZTVNSt6thread11_State_implINS_8_InvokerISt5tupleIJZZN8TestCase7runImplIJZN16IncrementRelaxed3runEvEUlvE_ZNS5_3runEvEUlvE0_EEE10TestResultDpT_ENKUlT_E_clIS6_EEDaSB_EUlvE_EEEEEE+8)
	addiu	$2,$2,%lo(_ZTVNSt6thread11_State_implINS_8_InvokerISt5tupleIJZZN8TestCase7runImplIJZN16IncrementRelaxed3runEvEUlvE_ZNS5_3runEvEUlvE0_EEE10TestResultDpT_ENKUlT_E_clIS6_EEDaSB_EUlvE_EEEEEE+8)
	sw	$16,24($sp)
	sw	$31,28($sp)
	.cfi_offset 16, -8
	.cfi_offset 31, -4
	move	$16,$4
	jal	_ZNSt6thread6_StateD2Ev
	sw	$2,0($4)

	lw	$31,28($sp)
	move	$4,$16
	lw	$16,24($sp)
	li	$5,20			# 0x14
	.cfi_restore 16
	.cfi_restore 31
	j	_ZdlPvj
	addiu	$sp,$sp,32

	.cfi_def_cfa_offset 0
	.set	macro
	.set	reorder
	.end	_ZNSt6thread11_State_implINS_8_InvokerISt5tupleIJZZN8TestCase7runImplIJZN16IncrementRelaxed3runEvEUlvE_ZNS5_3runEvEUlvE0_EEE10TestResultDpT_ENKUlT_E_clIS6_EEDaSB_EUlvE_EEEEED0Ev
	.cfi_endproc
$LFE7169:
	.size	_ZNSt6thread11_State_implINS_8_InvokerISt5tupleIJZZN8TestCase7runImplIJZN16IncrementRelaxed3runEvEUlvE_ZNS5_3runEvEUlvE0_EEE10TestResultDpT_ENKUlT_E_clIS6_EEDaSB_EUlvE_EEEEED0Ev, .-_ZNSt6thread11_State_implINS_8_InvokerISt5tupleIJZZN8TestCase7runImplIJZN16IncrementRelaxed3runEvEUlvE_ZNS5_3runEvEUlvE0_EEE10TestResultDpT_ENKUlT_E_clIS6_EEDaSB_EUlvE_EEEEED0Ev
	.section	.text._ZNSt6thread11_State_implINS_8_InvokerISt5tupleIJZZN8TestCase7runImplIJZN16IncrementRegular3runEvEUlvE_ZNS5_3runEvEUlvE0_EEE10TestResultDpT_ENKUlT_E_clIS7_EEDaSB_EUlvE_EEEEED2Ev,"axG",@progbits,_ZNSt6thread11_State_implINS_8_InvokerISt5tupleIJZZN8TestCase7runImplIJZN16IncrementRegular3runEvEUlvE_ZNS5_3runEvEUlvE0_EEE10TestResultDpT_ENKUlT_E_clIS7_EEDaSB_EUlvE_EEEEED5Ev,comdat
	.align	2
	.weak	_ZNSt6thread11_State_implINS_8_InvokerISt5tupleIJZZN8TestCase7runImplIJZN16IncrementRegular3runEvEUlvE_ZNS5_3runEvEUlvE0_EEE10TestResultDpT_ENKUlT_E_clIS7_EEDaSB_EUlvE_EEEEED2Ev
$LFB7171 = .
	.cfi_startproc
	.set	nomips16
	.set	nomicromips
	.ent	_ZNSt6thread11_State_implINS_8_InvokerISt5tupleIJZZN8TestCase7runImplIJZN16IncrementRegular3runEvEUlvE_ZNS5_3runEvEUlvE0_EEE10TestResultDpT_ENKUlT_E_clIS7_EEDaSB_EUlvE_EEEEED2Ev
	.type	_ZNSt6thread11_State_implINS_8_InvokerISt5tupleIJZZN8TestCase7runImplIJZN16IncrementRegular3runEvEUlvE_ZNS5_3runEvEUlvE0_EEE10TestResultDpT_ENKUlT_E_clIS7_EEDaSB_EUlvE_EEEEED2Ev, @function
_ZNSt6thread11_State_implINS_8_InvokerISt5tupleIJZZN8TestCase7runImplIJZN16IncrementRegular3runEvEUlvE_ZNS5_3runEvEUlvE0_EEE10TestResultDpT_ENKUlT_E_clIS7_EEDaSB_EUlvE_EEEEED2Ev:
	.frame	$sp,0,$31		# vars= 0, regs= 0/0, args= 0, gp= 0
	.mask	0x00000000,0
	.fmask	0x00000000,0
	.set	noreorder
	.set	nomacro
	lui	$2,%hi(_ZTVNSt6thread11_State_implINS_8_InvokerISt5tupleIJZZN8TestCase7runImplIJZN16IncrementRegular3runEvEUlvE_ZNS5_3runEvEUlvE0_EEE10TestResultDpT_ENKUlT_E_clIS7_EEDaSB_EUlvE_EEEEEE+8)
	addiu	$2,$2,%lo(_ZTVNSt6thread11_State_implINS_8_InvokerISt5tupleIJZZN8TestCase7runImplIJZN16IncrementRegular3runEvEUlvE_ZNS5_3runEvEUlvE0_EEE10TestResultDpT_ENKUlT_E_clIS7_EEDaSB_EUlvE_EEEEEE+8)
	j	_ZNSt6thread6_StateD2Ev
	sw	$2,0($4)

	.set	macro
	.set	reorder
	.end	_ZNSt6thread11_State_implINS_8_InvokerISt5tupleIJZZN8TestCase7runImplIJZN16IncrementRegular3runEvEUlvE_ZNS5_3runEvEUlvE0_EEE10TestResultDpT_ENKUlT_E_clIS7_EEDaSB_EUlvE_EEEEED2Ev
	.cfi_endproc
$LFE7171:
	.size	_ZNSt6thread11_State_implINS_8_InvokerISt5tupleIJZZN8TestCase7runImplIJZN16IncrementRegular3runEvEUlvE_ZNS5_3runEvEUlvE0_EEE10TestResultDpT_ENKUlT_E_clIS7_EEDaSB_EUlvE_EEEEED2Ev, .-_ZNSt6thread11_State_implINS_8_InvokerISt5tupleIJZZN8TestCase7runImplIJZN16IncrementRegular3runEvEUlvE_ZNS5_3runEvEUlvE0_EEE10TestResultDpT_ENKUlT_E_clIS7_EEDaSB_EUlvE_EEEEED2Ev
	.weak	_ZNSt6thread11_State_implINS_8_InvokerISt5tupleIJZZN8TestCase7runImplIJZN16IncrementRegular3runEvEUlvE_ZNS5_3runEvEUlvE0_EEE10TestResultDpT_ENKUlT_E_clIS7_EEDaSB_EUlvE_EEEEED1Ev
	_ZNSt6thread11_State_implINS_8_InvokerISt5tupleIJZZN8TestCase7runImplIJZN16IncrementRegular3runEvEUlvE_ZNS5_3runEvEUlvE0_EEE10TestResultDpT_ENKUlT_E_clIS7_EEDaSB_EUlvE_EEEEED1Ev = _ZNSt6thread11_State_implINS_8_InvokerISt5tupleIJZZN8TestCase7runImplIJZN16IncrementRegular3runEvEUlvE_ZNS5_3runEvEUlvE0_EEE10TestResultDpT_ENKUlT_E_clIS7_EEDaSB_EUlvE_EEEEED2Ev
	.section	.text._ZNSt6thread11_State_implINS_8_InvokerISt5tupleIJZZN8TestCase7runImplIJZN16IncrementRegular3runEvEUlvE_ZNS5_3runEvEUlvE0_EEE10TestResultDpT_ENKUlT_E_clIS7_EEDaSB_EUlvE_EEEEED0Ev,"axG",@progbits,_ZNSt6thread11_State_implINS_8_InvokerISt5tupleIJZZN8TestCase7runImplIJZN16IncrementRegular3runEvEUlvE_ZNS5_3runEvEUlvE0_EEE10TestResultDpT_ENKUlT_E_clIS7_EEDaSB_EUlvE_EEEEED5Ev,comdat
	.align	2
	.weak	_ZNSt6thread11_State_implINS_8_InvokerISt5tupleIJZZN8TestCase7runImplIJZN16IncrementRegular3runEvEUlvE_ZNS5_3runEvEUlvE0_EEE10TestResultDpT_ENKUlT_E_clIS7_EEDaSB_EUlvE_EEEEED0Ev
$LFB7173 = .
	.cfi_startproc
	.set	nomips16
	.set	nomicromips
	.ent	_ZNSt6thread11_State_implINS_8_InvokerISt5tupleIJZZN8TestCase7runImplIJZN16IncrementRegular3runEvEUlvE_ZNS5_3runEvEUlvE0_EEE10TestResultDpT_ENKUlT_E_clIS7_EEDaSB_EUlvE_EEEEED0Ev
	.type	_ZNSt6thread11_State_implINS_8_InvokerISt5tupleIJZZN8TestCase7runImplIJZN16IncrementRegular3runEvEUlvE_ZNS5_3runEvEUlvE0_EEE10TestResultDpT_ENKUlT_E_clIS7_EEDaSB_EUlvE_EEEEED0Ev, @function
_ZNSt6thread11_State_implINS_8_InvokerISt5tupleIJZZN8TestCase7runImplIJZN16IncrementRegular3runEvEUlvE_ZNS5_3runEvEUlvE0_EEE10TestResultDpT_ENKUlT_E_clIS7_EEDaSB_EUlvE_EEEEED0Ev:
	.frame	$sp,32,$31		# vars= 0, regs= 2/0, args= 16, gp= 8
	.mask	0x80010000,-4
	.fmask	0x00000000,0
	.set	noreorder
	.set	nomacro
	addiu	$sp,$sp,-32
	.cfi_def_cfa_offset 32
	lui	$2,%hi(_ZTVNSt6thread11_State_implINS_8_InvokerISt5tupleIJZZN8TestCase7runImplIJZN16IncrementRegular3runEvEUlvE_ZNS5_3runEvEUlvE0_EEE10TestResultDpT_ENKUlT_E_clIS7_EEDaSB_EUlvE_EEEEEE+8)
	addiu	$2,$2,%lo(_ZTVNSt6thread11_State_implINS_8_InvokerISt5tupleIJZZN8TestCase7runImplIJZN16IncrementRegular3runEvEUlvE_ZNS5_3runEvEUlvE0_EEE10TestResultDpT_ENKUlT_E_clIS7_EEDaSB_EUlvE_EEEEEE+8)
	sw	$16,24($sp)
	sw	$31,28($sp)
	.cfi_offset 16, -8
	.cfi_offset 31, -4
	move	$16,$4
	jal	_ZNSt6thread6_StateD2Ev
	sw	$2,0($4)

	lw	$31,28($sp)
	move	$4,$16
	lw	$16,24($sp)
	li	$5,20			# 0x14
	.cfi_restore 16
	.cfi_restore 31
	j	_ZdlPvj
	addiu	$sp,$sp,32

	.cfi_def_cfa_offset 0
	.set	macro
	.set	reorder
	.end	_ZNSt6thread11_State_implINS_8_InvokerISt5tupleIJZZN8TestCase7runImplIJZN16IncrementRegular3runEvEUlvE_ZNS5_3runEvEUlvE0_EEE10TestResultDpT_ENKUlT_E_clIS7_EEDaSB_EUlvE_EEEEED0Ev
	.cfi_endproc
$LFE7173:
	.size	_ZNSt6thread11_State_implINS_8_InvokerISt5tupleIJZZN8TestCase7runImplIJZN16IncrementRegular3runEvEUlvE_ZNS5_3runEvEUlvE0_EEE10TestResultDpT_ENKUlT_E_clIS7_EEDaSB_EUlvE_EEEEED0Ev, .-_ZNSt6thread11_State_implINS_8_InvokerISt5tupleIJZZN8TestCase7runImplIJZN16IncrementRegular3runEvEUlvE_ZNS5_3runEvEUlvE0_EEE10TestResultDpT_ENKUlT_E_clIS7_EEDaSB_EUlvE_EEEEED0Ev
	.section	.text._ZN7SeqCst25checkEv,"axG",@progbits,_ZN7SeqCst25checkEv,comdat
	.align	2
	.weak	_ZN7SeqCst25checkEv
$LFB4414 = .
	.cfi_startproc
	.set	nomips16
	.set	nomicromips
	.ent	_ZN7SeqCst25checkEv
	.type	_ZN7SeqCst25checkEv, @function
_ZN7SeqCst25checkEv:
	.frame	$sp,0,$31		# vars= 0, regs= 0/0, args= 0, gp= 0
	.mask	0x00000000,0
	.fmask	0x00000000,0
	.set	noreorder
	.set	nomacro
	sync
	lw	$3,28($4)
	li	$2,1			# 0x1
	sync
	bne	$3,$2,$L122
	nop

$L120:
	sync
	sw	$0,20($4)
	sync
	sync
	sw	$0,24($4)
	sync
	jr	$31
	nop

$L122:
	sync
	lw	$3,32($4)
	sync
	beq	$3,$2,$L120
	nop

	sync
	sb	$2,4($4)
	sync
	sync
	sw	$0,20($4)
	sync
	sync
	sw	$0,24($4)
	sync
	jr	$31
	nop

	.set	macro
	.set	reorder
	.end	_ZN7SeqCst25checkEv
	.cfi_endproc
$LFE4414:
	.size	_ZN7SeqCst25checkEv, .-_ZN7SeqCst25checkEv
	.section	.text._ZN13SeqCstAcqRel25checkEv,"axG",@progbits,_ZN13SeqCstAcqRel25checkEv,comdat
	.align	2
	.weak	_ZN13SeqCstAcqRel25checkEv
$LFB4410 = .
	.cfi_startproc
	.set	nomips16
	.set	nomicromips
	.ent	_ZN13SeqCstAcqRel25checkEv
	.type	_ZN13SeqCstAcqRel25checkEv, @function
_ZN13SeqCstAcqRel25checkEv:
	.frame	$sp,0,$31		# vars= 0, regs= 0/0, args= 0, gp= 0
	.mask	0x00000000,0
	.fmask	0x00000000,0
	.set	noreorder
	.set	nomacro
	sync
	lw	$3,28($4)
	li	$2,1			# 0x1
	sync
	bne	$3,$2,$L127
	nop

$L125:
	sync
	sw	$0,20($4)
	sync
	sync
	sw	$0,24($4)
	sync
	jr	$31
	nop

$L127:
	sync
	lw	$3,32($4)
	sync
	beq	$3,$2,$L125
	nop

	sync
	sb	$2,4($4)
	sync
	sync
	sw	$0,20($4)
	sync
	sync
	sw	$0,24($4)
	sync
	jr	$31
	nop

	.set	macro
	.set	reorder
	.end	_ZN13SeqCstAcqRel25checkEv
	.cfi_endproc
$LFE4410:
	.size	_ZN13SeqCstAcqRel25checkEv, .-_ZN13SeqCstAcqRel25checkEv
	.section	.text._ZN7SeqCst45checkEv,"axG",@progbits,_ZN7SeqCst45checkEv,comdat
	.align	2
	.weak	_ZN7SeqCst45checkEv
$LFB4406 = .
	.cfi_startproc
	.set	nomips16
	.set	nomicromips
	.ent	_ZN7SeqCst45checkEv
	.type	_ZN7SeqCst45checkEv, @function
_ZN7SeqCst45checkEv:
	.frame	$sp,0,$31		# vars= 0, regs= 0/0, args= 0, gp= 0
	.mask	0x00000000,0
	.fmask	0x00000000,0
	.set	noreorder
	.set	nomacro
	sync
	lw	$2,28($4)
	sync
	bne	$2,$0,$L135
	nop

$L130:
	sync
	sw	$0,20($4)
	sync
	sync
	sw	$0,24($4)
	sync
	jr	$31
	nop

$L135:
	sync
	lw	$2,32($4)
	sync
	bne	$2,$0,$L130
	nop

	sync
	lw	$2,36($4)
	sync
	beq	$2,$0,$L130
	nop

	sync
	lw	$2,40($4)
	sync
	bne	$2,$0,$L130
	li	$2,1			# 0x1

	sync
	sb	$2,4($4)
	sync
	b	$L130
	nop

	.set	macro
	.set	reorder
	.end	_ZN7SeqCst45checkEv
	.cfi_endproc
$LFE4406:
	.size	_ZN7SeqCst45checkEv, .-_ZN7SeqCst45checkEv
	.section	.text._ZN13SeqCstAcqRel45checkEv,"axG",@progbits,_ZN13SeqCstAcqRel45checkEv,comdat
	.align	2
	.weak	_ZN13SeqCstAcqRel45checkEv
$LFB4400 = .
	.cfi_startproc
	.set	nomips16
	.set	nomicromips
	.ent	_ZN13SeqCstAcqRel45checkEv
	.type	_ZN13SeqCstAcqRel45checkEv, @function
_ZN13SeqCstAcqRel45checkEv:
	.frame	$sp,0,$31		# vars= 0, regs= 0/0, args= 0, gp= 0
	.mask	0x00000000,0
	.fmask	0x00000000,0
	.set	noreorder
	.set	nomacro
	sync
	lw	$2,28($4)
	sync
	bne	$2,$0,$L143
	nop

$L138:
	sync
	sw	$0,20($4)
	sync
	sync
	sw	$0,24($4)
	sync
	jr	$31
	nop

$L143:
	sync
	lw	$2,32($4)
	sync
	bne	$2,$0,$L138
	nop

	sync
	lw	$2,36($4)
	sync
	beq	$2,$0,$L138
	nop

	sync
	lw	$2,40($4)
	sync
	bne	$2,$0,$L138
	li	$2,1			# 0x1

	sync
	sb	$2,4($4)
	sync
	b	$L138
	nop

	.set	macro
	.set	reorder
	.end	_ZN13SeqCstAcqRel45checkEv
	.cfi_endproc
$LFE4400:
	.size	_ZN13SeqCstAcqRel45checkEv, .-_ZN13SeqCstAcqRel45checkEv
	.section	.text._ZN15IncrementSeqCst5checkEv,"axG",@progbits,_ZN15IncrementSeqCst5checkEv,comdat
	.align	2
	.weak	_ZN15IncrementSeqCst5checkEv
$LFB4374 = .
	.cfi_startproc
	.set	nomips16
	.set	nomicromips
	.ent	_ZN15IncrementSeqCst5checkEv
	.type	_ZN15IncrementSeqCst5checkEv, @function
_ZN15IncrementSeqCst5checkEv:
	.frame	$sp,0,$31		# vars= 0, regs= 0/0, args= 0, gp= 0
	.mask	0x00000000,0
	.fmask	0x00000000,0
	.set	noreorder
	.set	nomacro
	sync
	lw	$3,20($4)
	li	$2,2			# 0x2
	sync
	bnel	$3,$2,$L146
	li	$2,1			# 0x1

	sync
	sw	$0,20($4)
	sync
	jr	$31
	nop

$L146:
	sync
	sb	$2,4($4)
	sync
	sync
	sw	$0,20($4)
	sync
	jr	$31
	nop

	.set	macro
	.set	reorder
	.end	_ZN15IncrementSeqCst5checkEv
	.cfi_endproc
$LFE4374:
	.size	_ZN15IncrementSeqCst5checkEv, .-_ZN15IncrementSeqCst5checkEv
	.section	.text._ZN16IncrementRelaxed5checkEv,"axG",@progbits,_ZN16IncrementRelaxed5checkEv,comdat
	.align	2
	.weak	_ZN16IncrementRelaxed5checkEv
$LFB4370 = .
	.cfi_startproc
	.set	nomips16
	.set	nomicromips
	.ent	_ZN16IncrementRelaxed5checkEv
	.type	_ZN16IncrementRelaxed5checkEv, @function
_ZN16IncrementRelaxed5checkEv:
	.frame	$sp,0,$31		# vars= 0, regs= 0/0, args= 0, gp= 0
	.mask	0x00000000,0
	.fmask	0x00000000,0
	.set	noreorder
	.set	nomacro
	sync
	lw	$3,20($4)
	li	$2,2			# 0x2
	sync
	bnel	$3,$2,$L149
	li	$2,1			# 0x1

	sync
	sw	$0,20($4)
	sync
	jr	$31
	nop

$L149:
	sync
	sb	$2,4($4)
	sync
	sync
	sw	$0,20($4)
	sync
	jr	$31
	nop

	.set	macro
	.set	reorder
	.end	_ZN16IncrementRelaxed5checkEv
	.cfi_endproc
$LFE4370:
	.size	_ZN16IncrementRelaxed5checkEv, .-_ZN16IncrementRelaxed5checkEv
	.text
	.align	2
$LFB7593 = .
	.cfi_startproc
	.set	nomips16
	.set	nomicromips
	.ent	_ZStlsISt11char_traitsIcEERSt13basic_ostreamIcT_ES5_PKc.constprop.168
	.type	_ZStlsISt11char_traitsIcEERSt13basic_ostreamIcT_ES5_PKc.constprop.168, @function
_ZStlsISt11char_traitsIcEERSt13basic_ostreamIcT_ES5_PKc.constprop.168:
	.frame	$sp,32,$31		# vars= 0, regs= 2/0, args= 16, gp= 8
	.mask	0x80010000,-4
	.fmask	0x00000000,0
	.set	noreorder
	.set	nomacro
	addiu	$sp,$sp,-32
	.cfi_def_cfa_offset 32
	sw	$31,28($sp)
	.cfi_offset 31, -4
	beq	$4,$0,$L154
	sw	$16,24($sp)

	.cfi_offset 16, -8
	jal	strlen
	move	$16,$4

	lui	$3,%hi(_ZSt4cout)
	move	$5,$16
	addiu	$4,$3,%lo(_ZSt4cout)
	move	$6,$2
	jal	_ZSt16__ostream_insertIcSt11char_traitsIcEERSt13basic_ostreamIT_T0_ES6_PKS3_i
	move	$16,$4

	lw	$31,28($sp)
	move	$2,$16
	lw	$16,24($sp)
	jr	$31
	addiu	$sp,$sp,32

	.cfi_remember_state
	.cfi_def_cfa_offset 0
	.cfi_restore 16
	.cfi_restore 31
$L154:
	.cfi_restore_state
	lui	$3,%hi(_ZSt4cout)
	addiu	$16,$3,%lo(_ZSt4cout)
	lw	$2,%lo(_ZSt4cout)($3)
	lw	$2,-12($2)
	addu	$2,$16,$2
	move	$4,$2
	lw	$5,20($2)
	jal	_ZNSt9basic_iosIcSt11char_traitsIcEE5clearESt12_Ios_Iostate
	ori	$5,$5,0x1

	lw	$31,28($sp)
	move	$2,$16
	lw	$16,24($sp)
	jr	$31
	addiu	$sp,$sp,32

	.cfi_def_cfa_offset 0
	.cfi_restore 16
	.cfi_restore 31
	.set	macro
	.set	reorder
	.end	_ZStlsISt11char_traitsIcEERSt13basic_ostreamIcT_ES5_PKc.constprop.168
	.cfi_endproc
$LFE7593:
	.size	_ZStlsISt11char_traitsIcEERSt13basic_ostreamIcT_ES5_PKc.constprop.168, .-_ZStlsISt11char_traitsIcEERSt13basic_ostreamIcT_ES5_PKc.constprop.168
	.section	.text._ZNSt6thread11_State_implINS_8_InvokerISt5tupleIJZZN8TestCase7runImplIJZN16IncrementRegular3runEvEUlvE_ZNS5_3runEvEUlvE0_EEE10TestResultDpT_ENKUlT_E_clIS7_EEDaSB_EUlvE_EEEEE6_M_runEv,"axG",@progbits,_ZNSt6thread11_State_implINS_8_InvokerISt5tupleIJZZN8TestCase7runImplIJZN16IncrementRegular3runEvEUlvE_ZNS5_3runEvEUlvE0_EEE10TestResultDpT_ENKUlT_E_clIS7_EEDaSB_EUlvE_EEEEE6_M_runEv,comdat
	.align	2
	.weak	_ZNSt6thread11_State_implINS_8_InvokerISt5tupleIJZZN8TestCase7runImplIJZN16IncrementRegular3runEvEUlvE_ZNS5_3runEvEUlvE0_EEE10TestResultDpT_ENKUlT_E_clIS7_EEDaSB_EUlvE_EEEEE6_M_runEv
$LFB7225 = .
	.cfi_startproc
	.set	nomips16
	.set	nomicromips
	.ent	_ZNSt6thread11_State_implINS_8_InvokerISt5tupleIJZZN8TestCase7runImplIJZN16IncrementRegular3runEvEUlvE_ZNS5_3runEvEUlvE0_EEE10TestResultDpT_ENKUlT_E_clIS7_EEDaSB_EUlvE_EEEEE6_M_runEv
	.type	_ZNSt6thread11_State_implINS_8_InvokerISt5tupleIJZZN8TestCase7runImplIJZN16IncrementRegular3runEvEUlvE_ZNS5_3runEvEUlvE0_EEE10TestResultDpT_ENKUlT_E_clIS7_EEDaSB_EUlvE_EEEEE6_M_runEv, @function
_ZNSt6thread11_State_implINS_8_InvokerISt5tupleIJZZN8TestCase7runImplIJZN16IncrementRegular3runEvEUlvE_ZNS5_3runEvEUlvE0_EEE10TestResultDpT_ENKUlT_E_clIS7_EEDaSB_EUlvE_EEEEE6_M_runEv:
	.frame	$sp,40,$31		# vars= 0, regs= 4/0, args= 16, gp= 8
	.mask	0x80070000,-4
	.fmask	0x00000000,0
	lw	$2,8($4)
	sync
	addiu	$5,$2,8
	lw	$7,8($2)
	addiu	$3,$2,4
	sync
	.set	noreorder
	.set	nomacro
	.set	noat
	sync
1:
	ll	$6,0($3)
	addiu	$1,$6,-1
	sc	$1,0($3)
	beq	$1,$0,1b
	addiu	$6,$6,-1
	sync
	.set	at
	.set	macro
	.set	reorder
	beq	$6,$0,$L184
$L156:
	sync
	lw	$2,0($5)
	sync
	beq	$7,$2,$L156
	lw	$2,12($4)
	lw	$2,8($2)
	blez	$2,$L192
$L188:
	addiu	$sp,$sp,-40
	.cfi_def_cfa_offset 40
	move	$3,$0
	sw	$17,28($sp)
	sw	$31,36($sp)
	sw	$18,32($sp)
	sw	$16,24($sp)
	.cfi_offset 17, -12
	.cfi_offset 31, -4
	.cfi_offset 18, -8
	.cfi_offset 16, -16
	move	$17,$4
$L158:
	lw	$2,16($17)
	sync
	addiu	$4,$2,8
	lw	$7,8($2)
	addiu	$5,$2,4
	sync
	.set	noreorder
	.set	nomacro
	.set	noat
	sync
1:
	ll	$6,0($5)
	addiu	$1,$6,-1
	sc	$1,0($5)
	beq	$1,$0,1b
	addiu	$6,$6,-1
	sync
	.set	at
	.set	macro
	.set	reorder
	beq	$6,$0,$L185
$L160:
	sync
	lw	$2,0($4)
	sync
	beq	$7,$2,$L160
	lw	$4,4($17)
$L191:
#APP
 # 116 "atomics.cpp" 1
	# marker IncrementRegular|Thread 1
 # 0 "" 2
#NO_APP
	lw	$2,20($4)
	addiu	$2,$2,1
	sw	$2,20($4)
#APP
 # 118 "atomics.cpp" 1
	# marker end
 # 0 "" 2
#NO_APP
	li	$2,1000			# 0x3e8
$L162:
	addiu	$2,$2,-1
	bne	$2,$0,$L162
	lw	$2,16($17)
	sync
	addiu	$4,$2,8
	lw	$7,8($2)
	addiu	$5,$2,4
	sync
	.set	noreorder
	.set	nomacro
	.set	noat
	sync
1:
	ll	$6,0($5)
	addiu	$1,$6,-1
	sc	$1,0($5)
	beq	$1,$0,1b
	addiu	$6,$6,-1
	sync
	.set	at
	.set	macro
	.set	reorder
	beq	$6,$0,$L186
$L163:
	sync
	lw	$2,0($4)
	sync
	beq	$7,$2,$L163
	lw	$16,12($17)
$L190:
	addiu	$18,$3,1
	.set	noreorder
	.set	nomacro
	.set	noat
	sync
1:
	ll	$4,12($16)
	bne	$4,$3,2f
	li	$2,0
	move	$1,$18
	sc	$1,12($16)
	beq	$1,$0,1b
	li	$2,1
	sync
2:
	.set	at
	.set	macro
	.set	reorder
	.set	noreorder
	.set	nomacro
	beql	$2,$0,$L189
	lw	$2,12($17)
	.set	macro
	.set	reorder

	lw	$2,0($16)
	lw	$25,8($2)
	.set	noreorder
	.set	nomacro
	jalr	$25
	move	$4,$16
	.set	macro
	.set	reorder

	sync
	lbu	$2,4($16)
	sync
	andi	$2,$2,0x00ff
	bne	$2,$0,$L187
	lw	$2,12($17)
$L189:
	lw	$2,8($2)
	slt	$2,$18,$2
	.set	noreorder
	.set	nomacro
	bne	$2,$0,$L158
	move	$3,$18
	.set	macro
	.set	reorder

	lw	$31,36($sp)
	lw	$18,32($sp)
	lw	$17,28($sp)
	lw	$16,24($sp)
	.set	noreorder
	.set	nomacro
	jr	$31
	addiu	$sp,$sp,40
	.set	macro
	.set	reorder

	.cfi_remember_state
	.cfi_def_cfa_offset 0
	.cfi_restore 16
	.cfi_restore 17
	.cfi_restore 18
	.cfi_restore 31
$L187:
	.cfi_restore_state
	.set	noreorder
	.set	nomacro
	.set	noat
	sync
1:
	ll	$1,16($16)
	addiu	$1,$1,1
	sc	$1,16($16)
	beq	$1,$0,1b
	nop
	sync
	.set	at
	.set	macro
	.set	reorder
	sync
	sb	$0,4($16)
	sync
	.set	noreorder
	.set	nomacro
	b	$L189
	lw	$2,12($17)
	.set	macro
	.set	reorder

$L186:
	sync
	lw	$5,0($2)
	sw	$5,4($2)
	sync
	.set	noreorder
	.set	nomacro
	.set	noat
	sync
1:
	ll	$1,0($4)
	addiu	$1,$1,1
	sc	$1,0($4)
	beq	$1,$0,1b
	nop
	sync
	.set	at
	.set	macro
	.set	reorder
	.set	noreorder
	.set	nomacro
	b	$L190
	lw	$16,12($17)
	.set	macro
	.set	reorder

$L185:
	sync
	lw	$5,0($2)
	sw	$5,4($2)
	sync
	.set	noreorder
	.set	nomacro
	.set	noat
	sync
1:
	ll	$1,0($4)
	addiu	$1,$1,1
	sc	$1,0($4)
	beq	$1,$0,1b
	nop
	sync
	.set	at
	.set	macro
	.set	reorder
	.set	noreorder
	.set	nomacro
	b	$L191
	lw	$4,4($17)
	.set	macro
	.set	reorder

$L184:
	.cfi_def_cfa_offset 0
	.cfi_restore 16
	.cfi_restore 17
	.cfi_restore 18
	.cfi_restore 31
	sync
	lw	$3,0($2)
	sw	$3,4($2)
	sync
	.set	noreorder
	.set	nomacro
	.set	noat
	sync
1:
	ll	$1,0($5)
	addiu	$1,$1,1
	sc	$1,0($5)
	beq	$1,$0,1b
	nop
	sync
	.set	at
	.set	macro
	.set	reorder
	lw	$2,12($4)
	lw	$2,8($2)
	bgtz	$2,$L188
$L192:
	jr	$31
	.end	_ZNSt6thread11_State_implINS_8_InvokerISt5tupleIJZZN8TestCase7runImplIJZN16IncrementRegular3runEvEUlvE_ZNS5_3runEvEUlvE0_EEE10TestResultDpT_ENKUlT_E_clIS7_EEDaSB_EUlvE_EEEEE6_M_runEv
	.cfi_endproc
$LFE7225:
	.size	_ZNSt6thread11_State_implINS_8_InvokerISt5tupleIJZZN8TestCase7runImplIJZN16IncrementRegular3runEvEUlvE_ZNS5_3runEvEUlvE0_EEE10TestResultDpT_ENKUlT_E_clIS7_EEDaSB_EUlvE_EEEEE6_M_runEv, .-_ZNSt6thread11_State_implINS_8_InvokerISt5tupleIJZZN8TestCase7runImplIJZN16IncrementRegular3runEvEUlvE_ZNS5_3runEvEUlvE0_EEE10TestResultDpT_ENKUlT_E_clIS7_EEDaSB_EUlvE_EEEEE6_M_runEv
	.section	.text._ZNSt6thread11_State_implINS_8_InvokerISt5tupleIJZZN8TestCase7runImplIJZN15IncrementSeqCst3runEvEUlvE_ZNS5_3runEvEUlvE0_EEE10TestResultDpT_ENKUlT_E_clIS7_EEDaSB_EUlvE_EEEEE6_M_runEv,"axG",@progbits,_ZNSt6thread11_State_implINS_8_InvokerISt5tupleIJZZN8TestCase7runImplIJZN15IncrementSeqCst3runEvEUlvE_ZNS5_3runEvEUlvE0_EEE10TestResultDpT_ENKUlT_E_clIS7_EEDaSB_EUlvE_EEEEE6_M_runEv,comdat
	.align	2
	.weak	_ZNSt6thread11_State_implINS_8_InvokerISt5tupleIJZZN8TestCase7runImplIJZN15IncrementSeqCst3runEvEUlvE_ZNS5_3runEvEUlvE0_EEE10TestResultDpT_ENKUlT_E_clIS7_EEDaSB_EUlvE_EEEEE6_M_runEv
$LFB7221 = .
	.cfi_startproc
	.set	nomips16
	.set	nomicromips
	.ent	_ZNSt6thread11_State_implINS_8_InvokerISt5tupleIJZZN8TestCase7runImplIJZN15IncrementSeqCst3runEvEUlvE_ZNS5_3runEvEUlvE0_EEE10TestResultDpT_ENKUlT_E_clIS7_EEDaSB_EUlvE_EEEEE6_M_runEv
	.type	_ZNSt6thread11_State_implINS_8_InvokerISt5tupleIJZZN8TestCase7runImplIJZN15IncrementSeqCst3runEvEUlvE_ZNS5_3runEvEUlvE0_EEE10TestResultDpT_ENKUlT_E_clIS7_EEDaSB_EUlvE_EEEEE6_M_runEv, @function
_ZNSt6thread11_State_implINS_8_InvokerISt5tupleIJZZN8TestCase7runImplIJZN15IncrementSeqCst3runEvEUlvE_ZNS5_3runEvEUlvE0_EEE10TestResultDpT_ENKUlT_E_clIS7_EEDaSB_EUlvE_EEEEE6_M_runEv:
	.frame	$sp,40,$31		# vars= 0, regs= 4/0, args= 16, gp= 8
	.mask	0x80070000,-4
	.fmask	0x00000000,0
	lw	$2,8($4)
	sync
	addiu	$5,$2,8
	lw	$7,8($2)
	addiu	$3,$2,4
	sync
	.set	noreorder
	.set	nomacro
	.set	noat
	sync
1:
	ll	$6,0($3)
	addiu	$1,$6,-1
	sc	$1,0($3)
	beq	$1,$0,1b
	addiu	$6,$6,-1
	sync
	.set	at
	.set	macro
	.set	reorder
	beq	$6,$0,$L222
$L194:
	sync
	lw	$2,0($5)
	sync
	beq	$7,$2,$L194
	lw	$2,12($4)
	lw	$2,8($2)
	blez	$2,$L230
$L226:
	addiu	$sp,$sp,-40
	.cfi_def_cfa_offset 40
	move	$3,$0
	sw	$17,28($sp)
	sw	$31,36($sp)
	sw	$18,32($sp)
	sw	$16,24($sp)
	.cfi_offset 17, -12
	.cfi_offset 31, -4
	.cfi_offset 18, -8
	.cfi_offset 16, -16
	move	$17,$4
$L196:
	lw	$2,16($17)
	sync
	addiu	$4,$2,8
	lw	$7,8($2)
	addiu	$5,$2,4
	sync
	.set	noreorder
	.set	nomacro
	.set	noat
	sync
1:
	ll	$6,0($5)
	addiu	$1,$6,-1
	sc	$1,0($5)
	beq	$1,$0,1b
	addiu	$6,$6,-1
	sync
	.set	at
	.set	macro
	.set	reorder
	beq	$6,$0,$L223
$L198:
	sync
	lw	$2,0($4)
	sync
	beq	$7,$2,$L198
	lw	$2,4($17)
$L229:
#APP
 # 168 "atomics.cpp" 1
	# marker IncrementSeqCst|Thread 1
 # 0 "" 2
#NO_APP
	.set	noreorder
	.set	nomacro
	.set	noat
	sync
1:
	ll	$1,20($2)
	addiu	$1,$1,1
	sc	$1,20($2)
	beq	$1,$0,1b
	nop
	sync
	.set	at
	.set	macro
	.set	reorder
#APP
 # 170 "atomics.cpp" 1
	# marker end
 # 0 "" 2
#NO_APP
	li	$2,1000			# 0x3e8
$L200:
	addiu	$2,$2,-1
	bne	$2,$0,$L200
	lw	$2,16($17)
	sync
	addiu	$4,$2,8
	lw	$7,8($2)
	addiu	$5,$2,4
	sync
	.set	noreorder
	.set	nomacro
	.set	noat
	sync
1:
	ll	$6,0($5)
	addiu	$1,$6,-1
	sc	$1,0($5)
	beq	$1,$0,1b
	addiu	$6,$6,-1
	sync
	.set	at
	.set	macro
	.set	reorder
	beq	$6,$0,$L224
$L201:
	sync
	lw	$2,0($4)
	sync
	beq	$7,$2,$L201
	lw	$16,12($17)
$L228:
	addiu	$18,$3,1
	.set	noreorder
	.set	nomacro
	.set	noat
	sync
1:
	ll	$4,12($16)
	bne	$4,$3,2f
	li	$2,0
	move	$1,$18
	sc	$1,12($16)
	beq	$1,$0,1b
	li	$2,1
	sync
2:
	.set	at
	.set	macro
	.set	reorder
	.set	noreorder
	.set	nomacro
	beql	$2,$0,$L227
	lw	$2,12($17)
	.set	macro
	.set	reorder

	lw	$2,0($16)
	lw	$25,8($2)
	.set	noreorder
	.set	nomacro
	jalr	$25
	move	$4,$16
	.set	macro
	.set	reorder

	sync
	lbu	$2,4($16)
	sync
	andi	$2,$2,0x00ff
	bne	$2,$0,$L225
	lw	$2,12($17)
$L227:
	lw	$2,8($2)
	slt	$2,$18,$2
	.set	noreorder
	.set	nomacro
	bne	$2,$0,$L196
	move	$3,$18
	.set	macro
	.set	reorder

	lw	$31,36($sp)
	lw	$18,32($sp)
	lw	$17,28($sp)
	lw	$16,24($sp)
	.set	noreorder
	.set	nomacro
	jr	$31
	addiu	$sp,$sp,40
	.set	macro
	.set	reorder

	.cfi_remember_state
	.cfi_def_cfa_offset 0
	.cfi_restore 16
	.cfi_restore 17
	.cfi_restore 18
	.cfi_restore 31
$L225:
	.cfi_restore_state
	.set	noreorder
	.set	nomacro
	.set	noat
	sync
1:
	ll	$1,16($16)
	addiu	$1,$1,1
	sc	$1,16($16)
	beq	$1,$0,1b
	nop
	sync
	.set	at
	.set	macro
	.set	reorder
	sync
	sb	$0,4($16)
	sync
	.set	noreorder
	.set	nomacro
	b	$L227
	lw	$2,12($17)
	.set	macro
	.set	reorder

$L224:
	sync
	lw	$5,0($2)
	sw	$5,4($2)
	sync
	.set	noreorder
	.set	nomacro
	.set	noat
	sync
1:
	ll	$1,0($4)
	addiu	$1,$1,1
	sc	$1,0($4)
	beq	$1,$0,1b
	nop
	sync
	.set	at
	.set	macro
	.set	reorder
	.set	noreorder
	.set	nomacro
	b	$L228
	lw	$16,12($17)
	.set	macro
	.set	reorder

$L223:
	sync
	lw	$5,0($2)
	sw	$5,4($2)
	sync
	.set	noreorder
	.set	nomacro
	.set	noat
	sync
1:
	ll	$1,0($4)
	addiu	$1,$1,1
	sc	$1,0($4)
	beq	$1,$0,1b
	nop
	sync
	.set	at
	.set	macro
	.set	reorder
	.set	noreorder
	.set	nomacro
	b	$L229
	lw	$2,4($17)
	.set	macro
	.set	reorder

$L222:
	.cfi_def_cfa_offset 0
	.cfi_restore 16
	.cfi_restore 17
	.cfi_restore 18
	.cfi_restore 31
	sync
	lw	$3,0($2)
	sw	$3,4($2)
	sync
	.set	noreorder
	.set	nomacro
	.set	noat
	sync
1:
	ll	$1,0($5)
	addiu	$1,$1,1
	sc	$1,0($5)
	beq	$1,$0,1b
	nop
	sync
	.set	at
	.set	macro
	.set	reorder
	lw	$2,12($4)
	lw	$2,8($2)
	bgtz	$2,$L226
$L230:
	jr	$31
	.end	_ZNSt6thread11_State_implINS_8_InvokerISt5tupleIJZZN8TestCase7runImplIJZN15IncrementSeqCst3runEvEUlvE_ZNS5_3runEvEUlvE0_EEE10TestResultDpT_ENKUlT_E_clIS7_EEDaSB_EUlvE_EEEEE6_M_runEv
	.cfi_endproc
$LFE7221:
	.size	_ZNSt6thread11_State_implINS_8_InvokerISt5tupleIJZZN8TestCase7runImplIJZN15IncrementSeqCst3runEvEUlvE_ZNS5_3runEvEUlvE0_EEE10TestResultDpT_ENKUlT_E_clIS7_EEDaSB_EUlvE_EEEEE6_M_runEv, .-_ZNSt6thread11_State_implINS_8_InvokerISt5tupleIJZZN8TestCase7runImplIJZN15IncrementSeqCst3runEvEUlvE_ZNS5_3runEvEUlvE0_EEE10TestResultDpT_ENKUlT_E_clIS7_EEDaSB_EUlvE_EEEEE6_M_runEv
	.section	.text._ZNSt6thread11_State_implINS_8_InvokerISt5tupleIJZZN8TestCase7runImplIJZN21SpinUseRelaxedRegular3runEvEUlvE_ZNS5_3runEvEUlvE0_EEE10TestResultDpT_ENKUlT_E_clIS6_EEDaSB_EUlvE_EEEEE6_M_runEv,"axG",@progbits,_ZNSt6thread11_State_implINS_8_InvokerISt5tupleIJZZN8TestCase7runImplIJZN21SpinUseRelaxedRegular3runEvEUlvE_ZNS5_3runEvEUlvE0_EEE10TestResultDpT_ENKUlT_E_clIS6_EEDaSB_EUlvE_EEEEE6_M_runEv,comdat
	.align	2
	.weak	_ZNSt6thread11_State_implINS_8_InvokerISt5tupleIJZZN8TestCase7runImplIJZN21SpinUseRelaxedRegular3runEvEUlvE_ZNS5_3runEvEUlvE0_EEE10TestResultDpT_ENKUlT_E_clIS6_EEDaSB_EUlvE_EEEEE6_M_runEv
$LFB7220 = .
	.cfi_startproc
	.set	nomips16
	.set	nomicromips
	.ent	_ZNSt6thread11_State_implINS_8_InvokerISt5tupleIJZZN8TestCase7runImplIJZN21SpinUseRelaxedRegular3runEvEUlvE_ZNS5_3runEvEUlvE0_EEE10TestResultDpT_ENKUlT_E_clIS6_EEDaSB_EUlvE_EEEEE6_M_runEv
	.type	_ZNSt6thread11_State_implINS_8_InvokerISt5tupleIJZZN8TestCase7runImplIJZN21SpinUseRelaxedRegular3runEvEUlvE_ZNS5_3runEvEUlvE0_EEE10TestResultDpT_ENKUlT_E_clIS6_EEDaSB_EUlvE_EEEEE6_M_runEv, @function
_ZNSt6thread11_State_implINS_8_InvokerISt5tupleIJZZN8TestCase7runImplIJZN21SpinUseRelaxedRegular3runEvEUlvE_ZNS5_3runEvEUlvE0_EEE10TestResultDpT_ENKUlT_E_clIS6_EEDaSB_EUlvE_EEEEE6_M_runEv:
	.frame	$sp,48,$31		# vars= 0, regs= 5/0, args= 16, gp= 8
	.mask	0x800f0000,-4
	.fmask	0x00000000,0
	lw	$2,8($4)
	sync
	addiu	$5,$2,8
	lw	$7,8($2)
	addiu	$3,$2,4
	sync
	.set	noreorder
	.set	nomacro
	.set	noat
	sync
1:
	ll	$6,0($3)
	addiu	$1,$6,-1
	sc	$1,0($3)
	beq	$1,$0,1b
	addiu	$6,$6,-1
	sync
	.set	at
	.set	macro
	.set	reorder
	beq	$6,$0,$L260
$L232:
	sync
	lw	$2,0($5)
	sync
	beq	$7,$2,$L232
	lw	$2,12($4)
	lw	$2,8($2)
	blez	$2,$L268
$L264:
	addiu	$sp,$sp,-48
	.cfi_def_cfa_offset 48
	move	$3,$0
	sw	$19,40($sp)
	sw	$17,32($sp)
	sw	$31,44($sp)
	sw	$18,36($sp)
	sw	$16,28($sp)
	.cfi_offset 19, -8
	.cfi_offset 17, -16
	.cfi_offset 31, -4
	.cfi_offset 18, -12
	.cfi_offset 16, -20
	move	$17,$4
	li	$19,1			# 0x1
$L234:
	lw	$2,16($17)
	sync
	addiu	$4,$2,8
	lw	$7,8($2)
	addiu	$5,$2,4
	sync
	.set	noreorder
	.set	nomacro
	.set	noat
	sync
1:
	ll	$6,0($5)
	addiu	$1,$6,-1
	sc	$1,0($5)
	beq	$1,$0,1b
	addiu	$6,$6,-1
	sync
	.set	at
	.set	macro
	.set	reorder
	beq	$6,$0,$L261
$L236:
	sync
	lw	$2,0($4)
	sync
	beq	$7,$2,$L236
	lw	$2,4($17)
$L267:
#APP
 # 190 "atomics.cpp" 1
	# marker SpinUseRelaxedRegular|Thread 0
 # 0 "" 2
#NO_APP
	sw	$19,24($2)
	sw	$19,20($2)
#APP
 # 193 "atomics.cpp" 1
	# marker end
 # 0 "" 2
#NO_APP
	li	$2,1000			# 0x3e8
$L238:
	addiu	$2,$2,-1
	bne	$2,$0,$L238
	lw	$2,16($17)
	sync
	addiu	$4,$2,8
	lw	$7,8($2)
	addiu	$5,$2,4
	sync
	.set	noreorder
	.set	nomacro
	.set	noat
	sync
1:
	ll	$6,0($5)
	addiu	$1,$6,-1
	sc	$1,0($5)
	beq	$1,$0,1b
	addiu	$6,$6,-1
	sync
	.set	at
	.set	macro
	.set	reorder
	beq	$6,$0,$L262
$L239:
	sync
	lw	$2,0($4)
	sync
	beq	$7,$2,$L239
	lw	$16,12($17)
$L266:
	addiu	$18,$3,1
	.set	noreorder
	.set	nomacro
	.set	noat
	sync
1:
	ll	$4,12($16)
	bne	$4,$3,2f
	li	$2,0
	move	$1,$18
	sc	$1,12($16)
	beq	$1,$0,1b
	li	$2,1
	sync
2:
	.set	at
	.set	macro
	.set	reorder
	.set	noreorder
	.set	nomacro
	beql	$2,$0,$L265
	lw	$2,12($17)
	.set	macro
	.set	reorder

	lw	$2,0($16)
	lw	$25,8($2)
	.set	noreorder
	.set	nomacro
	jalr	$25
	move	$4,$16
	.set	macro
	.set	reorder

	sync
	lbu	$2,4($16)
	sync
	andi	$2,$2,0x00ff
	bne	$2,$0,$L263
	lw	$2,12($17)
$L265:
	lw	$2,8($2)
	slt	$2,$18,$2
	.set	noreorder
	.set	nomacro
	bne	$2,$0,$L234
	move	$3,$18
	.set	macro
	.set	reorder

	lw	$31,44($sp)
	lw	$19,40($sp)
	lw	$18,36($sp)
	lw	$17,32($sp)
	lw	$16,28($sp)
	.set	noreorder
	.set	nomacro
	jr	$31
	addiu	$sp,$sp,48
	.set	macro
	.set	reorder

	.cfi_remember_state
	.cfi_def_cfa_offset 0
	.cfi_restore 16
	.cfi_restore 17
	.cfi_restore 18
	.cfi_restore 19
	.cfi_restore 31
$L263:
	.cfi_restore_state
	.set	noreorder
	.set	nomacro
	.set	noat
	sync
1:
	ll	$1,16($16)
	addiu	$1,$1,1
	sc	$1,16($16)
	beq	$1,$0,1b
	nop
	sync
	.set	at
	.set	macro
	.set	reorder
	sync
	sb	$0,4($16)
	sync
	.set	noreorder
	.set	nomacro
	b	$L265
	lw	$2,12($17)
	.set	macro
	.set	reorder

$L262:
	sync
	lw	$5,0($2)
	sw	$5,4($2)
	sync
	.set	noreorder
	.set	nomacro
	.set	noat
	sync
1:
	ll	$1,0($4)
	addiu	$1,$1,1
	sc	$1,0($4)
	beq	$1,$0,1b
	nop
	sync
	.set	at
	.set	macro
	.set	reorder
	.set	noreorder
	.set	nomacro
	b	$L266
	lw	$16,12($17)
	.set	macro
	.set	reorder

$L261:
	sync
	lw	$5,0($2)
	sw	$5,4($2)
	sync
	.set	noreorder
	.set	nomacro
	.set	noat
	sync
1:
	ll	$1,0($4)
	addiu	$1,$1,1
	sc	$1,0($4)
	beq	$1,$0,1b
	nop
	sync
	.set	at
	.set	macro
	.set	reorder
	.set	noreorder
	.set	nomacro
	b	$L267
	lw	$2,4($17)
	.set	macro
	.set	reorder

$L260:
	.cfi_def_cfa_offset 0
	.cfi_restore 16
	.cfi_restore 17
	.cfi_restore 18
	.cfi_restore 19
	.cfi_restore 31
	sync
	lw	$3,0($2)
	sw	$3,4($2)
	sync
	.set	noreorder
	.set	nomacro
	.set	noat
	sync
1:
	ll	$1,0($5)
	addiu	$1,$1,1
	sc	$1,0($5)
	beq	$1,$0,1b
	nop
	sync
	.set	at
	.set	macro
	.set	reorder
	lw	$2,12($4)
	lw	$2,8($2)
	bgtz	$2,$L264
$L268:
	jr	$31
	.end	_ZNSt6thread11_State_implINS_8_InvokerISt5tupleIJZZN8TestCase7runImplIJZN21SpinUseRelaxedRegular3runEvEUlvE_ZNS5_3runEvEUlvE0_EEE10TestResultDpT_ENKUlT_E_clIS6_EEDaSB_EUlvE_EEEEE6_M_runEv
	.cfi_endproc
$LFE7220:
	.size	_ZNSt6thread11_State_implINS_8_InvokerISt5tupleIJZZN8TestCase7runImplIJZN21SpinUseRelaxedRegular3runEvEUlvE_ZNS5_3runEvEUlvE0_EEE10TestResultDpT_ENKUlT_E_clIS6_EEDaSB_EUlvE_EEEEE6_M_runEv, .-_ZNSt6thread11_State_implINS_8_InvokerISt5tupleIJZZN8TestCase7runImplIJZN21SpinUseRelaxedRegular3runEvEUlvE_ZNS5_3runEvEUlvE0_EEE10TestResultDpT_ENKUlT_E_clIS6_EEDaSB_EUlvE_EEEEE6_M_runEv
	.section	.text._ZNSt6thread11_State_implINS_8_InvokerISt5tupleIJZZN8TestCase7runImplIJZN13SeqCstAcqRel23runEvEUlvE_ZNS5_3runEvEUlvE0_EEE10TestResultDpT_ENKUlT_E_clIS6_EEDaSB_EUlvE_EEEEE6_M_runEv,"axG",@progbits,_ZNSt6thread11_State_implINS_8_InvokerISt5tupleIJZZN8TestCase7runImplIJZN13SeqCstAcqRel23runEvEUlvE_ZNS5_3runEvEUlvE0_EEE10TestResultDpT_ENKUlT_E_clIS6_EEDaSB_EUlvE_EEEEE6_M_runEv,comdat
	.align	2
	.weak	_ZNSt6thread11_State_implINS_8_InvokerISt5tupleIJZZN8TestCase7runImplIJZN13SeqCstAcqRel23runEvEUlvE_ZNS5_3runEvEUlvE0_EEE10TestResultDpT_ENKUlT_E_clIS6_EEDaSB_EUlvE_EEEEE6_M_runEv
$LFB7202 = .
	.cfi_startproc
	.set	nomips16
	.set	nomicromips
	.ent	_ZNSt6thread11_State_implINS_8_InvokerISt5tupleIJZZN8TestCase7runImplIJZN13SeqCstAcqRel23runEvEUlvE_ZNS5_3runEvEUlvE0_EEE10TestResultDpT_ENKUlT_E_clIS6_EEDaSB_EUlvE_EEEEE6_M_runEv
	.type	_ZNSt6thread11_State_implINS_8_InvokerISt5tupleIJZZN8TestCase7runImplIJZN13SeqCstAcqRel23runEvEUlvE_ZNS5_3runEvEUlvE0_EEE10TestResultDpT_ENKUlT_E_clIS6_EEDaSB_EUlvE_EEEEE6_M_runEv, @function
_ZNSt6thread11_State_implINS_8_InvokerISt5tupleIJZZN8TestCase7runImplIJZN13SeqCstAcqRel23runEvEUlvE_ZNS5_3runEvEUlvE0_EEE10TestResultDpT_ENKUlT_E_clIS6_EEDaSB_EUlvE_EEEEE6_M_runEv:
	.frame	$sp,48,$31		# vars= 0, regs= 5/0, args= 16, gp= 8
	.mask	0x800f0000,-4
	.fmask	0x00000000,0
	lw	$2,8($4)
	sync
	addiu	$5,$2,8
	lw	$7,8($2)
	addiu	$3,$2,4
	sync
	.set	noreorder
	.set	nomacro
	.set	noat
	sync
1:
	ll	$6,0($3)
	addiu	$1,$6,-1
	sc	$1,0($3)
	beq	$1,$0,1b
	addiu	$6,$6,-1
	sync
	.set	at
	.set	macro
	.set	reorder
	beq	$6,$0,$L298
$L270:
	sync
	lw	$2,0($5)
	sync
	beq	$7,$2,$L270
	lw	$2,12($4)
	lw	$2,8($2)
	blez	$2,$L306
$L302:
	addiu	$sp,$sp,-48
	.cfi_def_cfa_offset 48
	move	$3,$0
	sw	$18,36($sp)
	sw	$17,32($sp)
	sw	$31,44($sp)
	sw	$19,40($sp)
	sw	$16,28($sp)
	.cfi_offset 18, -12
	.cfi_offset 17, -16
	.cfi_offset 31, -4
	.cfi_offset 19, -8
	.cfi_offset 16, -20
	move	$17,$4
	li	$18,1			# 0x1
$L272:
	lw	$2,16($17)
	sync
	addiu	$4,$2,8
	lw	$7,8($2)
	addiu	$5,$2,4
	sync
	.set	noreorder
	.set	nomacro
	.set	noat
	sync
1:
	ll	$6,0($5)
	addiu	$1,$6,-1
	sc	$1,0($5)
	beq	$1,$0,1b
	addiu	$6,$6,-1
	sync
	.set	at
	.set	macro
	.set	reorder
	beq	$6,$0,$L299
$L274:
	sync
	lw	$2,0($4)
	sync
	beq	$7,$2,$L274
	lw	$2,4($17)
$L305:
#APP
 # 461 "atomics.cpp" 1
	# marker SeqCstAcqRel2|Thread 0
 # 0 "" 2
#NO_APP
	sync
	sw	$18,20($2)
	lw	$5,24($2)
	sync
#APP
 # 464 "atomics.cpp" 1
	# marker end
 # 0 "" 2
#NO_APP
	lw	$4,4($17)
	li	$2,1000			# 0x3e8
	sw	$5,28($4)
$L276:
	addiu	$2,$2,-1
	bne	$2,$0,$L276
	lw	$2,16($17)
	sync
	addiu	$4,$2,8
	lw	$7,8($2)
	addiu	$5,$2,4
	sync
	.set	noreorder
	.set	nomacro
	.set	noat
	sync
1:
	ll	$6,0($5)
	addiu	$1,$6,-1
	sc	$1,0($5)
	beq	$1,$0,1b
	addiu	$6,$6,-1
	sync
	.set	at
	.set	macro
	.set	reorder
	beq	$6,$0,$L300
$L277:
	sync
	lw	$2,0($4)
	sync
	beq	$7,$2,$L277
	lw	$16,12($17)
$L304:
	addiu	$19,$3,1
	.set	noreorder
	.set	nomacro
	.set	noat
	sync
1:
	ll	$4,12($16)
	bne	$4,$3,2f
	li	$2,0
	move	$1,$19
	sc	$1,12($16)
	beq	$1,$0,1b
	li	$2,1
	sync
2:
	.set	at
	.set	macro
	.set	reorder
	.set	noreorder
	.set	nomacro
	beql	$2,$0,$L303
	lw	$2,12($17)
	.set	macro
	.set	reorder

	lw	$2,0($16)
	lw	$25,8($2)
	.set	noreorder
	.set	nomacro
	jalr	$25
	move	$4,$16
	.set	macro
	.set	reorder

	sync
	lbu	$2,4($16)
	sync
	andi	$2,$2,0x00ff
	bne	$2,$0,$L301
	lw	$2,12($17)
$L303:
	lw	$2,8($2)
	slt	$2,$19,$2
	.set	noreorder
	.set	nomacro
	bne	$2,$0,$L272
	move	$3,$19
	.set	macro
	.set	reorder

	lw	$31,44($sp)
	lw	$19,40($sp)
	lw	$18,36($sp)
	lw	$17,32($sp)
	lw	$16,28($sp)
	.set	noreorder
	.set	nomacro
	jr	$31
	addiu	$sp,$sp,48
	.set	macro
	.set	reorder

	.cfi_remember_state
	.cfi_def_cfa_offset 0
	.cfi_restore 16
	.cfi_restore 17
	.cfi_restore 18
	.cfi_restore 19
	.cfi_restore 31
$L301:
	.cfi_restore_state
	.set	noreorder
	.set	nomacro
	.set	noat
	sync
1:
	ll	$1,16($16)
	addiu	$1,$1,1
	sc	$1,16($16)
	beq	$1,$0,1b
	nop
	sync
	.set	at
	.set	macro
	.set	reorder
	sync
	sb	$0,4($16)
	sync
	.set	noreorder
	.set	nomacro
	b	$L303
	lw	$2,12($17)
	.set	macro
	.set	reorder

$L300:
	sync
	lw	$5,0($2)
	sw	$5,4($2)
	sync
	.set	noreorder
	.set	nomacro
	.set	noat
	sync
1:
	ll	$1,0($4)
	addiu	$1,$1,1
	sc	$1,0($4)
	beq	$1,$0,1b
	nop
	sync
	.set	at
	.set	macro
	.set	reorder
	.set	noreorder
	.set	nomacro
	b	$L304
	lw	$16,12($17)
	.set	macro
	.set	reorder

$L299:
	sync
	lw	$5,0($2)
	sw	$5,4($2)
	sync
	.set	noreorder
	.set	nomacro
	.set	noat
	sync
1:
	ll	$1,0($4)
	addiu	$1,$1,1
	sc	$1,0($4)
	beq	$1,$0,1b
	nop
	sync
	.set	at
	.set	macro
	.set	reorder
	.set	noreorder
	.set	nomacro
	b	$L305
	lw	$2,4($17)
	.set	macro
	.set	reorder

$L298:
	.cfi_def_cfa_offset 0
	.cfi_restore 16
	.cfi_restore 17
	.cfi_restore 18
	.cfi_restore 19
	.cfi_restore 31
	sync
	lw	$3,0($2)
	sw	$3,4($2)
	sync
	.set	noreorder
	.set	nomacro
	.set	noat
	sync
1:
	ll	$1,0($5)
	addiu	$1,$1,1
	sc	$1,0($5)
	beq	$1,$0,1b
	nop
	sync
	.set	at
	.set	macro
	.set	reorder
	lw	$2,12($4)
	lw	$2,8($2)
	bgtz	$2,$L302
$L306:
	jr	$31
	.end	_ZNSt6thread11_State_implINS_8_InvokerISt5tupleIJZZN8TestCase7runImplIJZN13SeqCstAcqRel23runEvEUlvE_ZNS5_3runEvEUlvE0_EEE10TestResultDpT_ENKUlT_E_clIS6_EEDaSB_EUlvE_EEEEE6_M_runEv
	.cfi_endproc
$LFE7202:
	.size	_ZNSt6thread11_State_implINS_8_InvokerISt5tupleIJZZN8TestCase7runImplIJZN13SeqCstAcqRel23runEvEUlvE_ZNS5_3runEvEUlvE0_EEE10TestResultDpT_ENKUlT_E_clIS6_EEDaSB_EUlvE_EEEEE6_M_runEv, .-_ZNSt6thread11_State_implINS_8_InvokerISt5tupleIJZZN8TestCase7runImplIJZN13SeqCstAcqRel23runEvEUlvE_ZNS5_3runEvEUlvE0_EEE10TestResultDpT_ENKUlT_E_clIS6_EEDaSB_EUlvE_EEEEE6_M_runEv
	.section	.text._ZNSt6thread11_State_implINS_8_InvokerISt5tupleIJZZN8TestCase7runImplIJZN13SeqCstAcqRel43runEvEUlvE_ZNS5_3runEvEUlvE0_ZNS5_3runEvEUlvE1_ZNS5_3runEvEUlvE2_EEE10TestResultDpT_ENKUlT_E_clIS7_EEDaSD_EUlvE_EEEEE6_M_runEv,"axG",@progbits,_ZNSt6thread11_State_implINS_8_InvokerISt5tupleIJZZN8TestCase7runImplIJZN13SeqCstAcqRel43runEvEUlvE_ZNS5_3runEvEUlvE0_ZNS5_3runEvEUlvE1_ZNS5_3runEvEUlvE2_EEE10TestResultDpT_ENKUlT_E_clIS7_EEDaSD_EUlvE_EEEEE6_M_runEv,comdat
	.align	2
	.weak	_ZNSt6thread11_State_implINS_8_InvokerISt5tupleIJZZN8TestCase7runImplIJZN13SeqCstAcqRel43runEvEUlvE_ZNS5_3runEvEUlvE0_ZNS5_3runEvEUlvE1_ZNS5_3runEvEUlvE2_EEE10TestResultDpT_ENKUlT_E_clIS7_EEDaSD_EUlvE_EEEEE6_M_runEv
$LFB7209 = .
	.cfi_startproc
	.set	nomips16
	.set	nomicromips
	.ent	_ZNSt6thread11_State_implINS_8_InvokerISt5tupleIJZZN8TestCase7runImplIJZN13SeqCstAcqRel43runEvEUlvE_ZNS5_3runEvEUlvE0_ZNS5_3runEvEUlvE1_ZNS5_3runEvEUlvE2_EEE10TestResultDpT_ENKUlT_E_clIS7_EEDaSD_EUlvE_EEEEE6_M_runEv
	.type	_ZNSt6thread11_State_implINS_8_InvokerISt5tupleIJZZN8TestCase7runImplIJZN13SeqCstAcqRel43runEvEUlvE_ZNS5_3runEvEUlvE0_ZNS5_3runEvEUlvE1_ZNS5_3runEvEUlvE2_EEE10TestResultDpT_ENKUlT_E_clIS7_EEDaSD_EUlvE_EEEEE6_M_runEv, @function
_ZNSt6thread11_State_implINS_8_InvokerISt5tupleIJZZN8TestCase7runImplIJZN13SeqCstAcqRel43runEvEUlvE_ZNS5_3runEvEUlvE0_ZNS5_3runEvEUlvE1_ZNS5_3runEvEUlvE2_EEE10TestResultDpT_ENKUlT_E_clIS7_EEDaSD_EUlvE_EEEEE6_M_runEv:
	.frame	$sp,48,$31		# vars= 0, regs= 5/0, args= 16, gp= 8
	.mask	0x800f0000,-4
	.fmask	0x00000000,0
	lw	$2,8($4)
	sync
	addiu	$5,$2,8
	lw	$7,8($2)
	addiu	$3,$2,4
	sync
	.set	noreorder
	.set	nomacro
	.set	noat
	sync
1:
	ll	$6,0($3)
	addiu	$1,$6,-1
	sc	$1,0($3)
	beq	$1,$0,1b
	addiu	$6,$6,-1
	sync
	.set	at
	.set	macro
	.set	reorder
	beq	$6,$0,$L336
$L308:
	sync
	lw	$2,0($5)
	sync
	beq	$7,$2,$L308
	lw	$2,12($4)
	lw	$2,8($2)
	blez	$2,$L344
$L340:
	addiu	$sp,$sp,-48
	.cfi_def_cfa_offset 48
	move	$3,$0
	sw	$18,36($sp)
	sw	$17,32($sp)
	sw	$31,44($sp)
	sw	$19,40($sp)
	sw	$16,28($sp)
	.cfi_offset 18, -12
	.cfi_offset 17, -16
	.cfi_offset 31, -4
	.cfi_offset 19, -8
	.cfi_offset 16, -20
	move	$17,$4
	li	$18,1			# 0x1
$L310:
	lw	$2,16($17)
	sync
	addiu	$4,$2,8
	lw	$7,8($2)
	addiu	$5,$2,4
	sync
	.set	noreorder
	.set	nomacro
	.set	noat
	sync
1:
	ll	$6,0($5)
	addiu	$1,$6,-1
	sc	$1,0($5)
	beq	$1,$0,1b
	addiu	$6,$6,-1
	sync
	.set	at
	.set	macro
	.set	reorder
	beq	$6,$0,$L337
$L312:
	sync
	lw	$2,0($4)
	sync
	beq	$7,$2,$L312
	lw	$2,4($17)
$L343:
#APP
 # 363 "atomics.cpp" 1
	# marker SeqCstAcqRel4|Thread 1
 # 0 "" 2
#NO_APP
	sync
	sw	$18,24($2)
#APP
 # 365 "atomics.cpp" 1
	# marker end
 # 0 "" 2
#NO_APP
	li	$2,1000			# 0x3e8
$L314:
	addiu	$2,$2,-1
	bne	$2,$0,$L314
	lw	$2,16($17)
	sync
	addiu	$4,$2,8
	lw	$7,8($2)
	addiu	$5,$2,4
	sync
	.set	noreorder
	.set	nomacro
	.set	noat
	sync
1:
	ll	$6,0($5)
	addiu	$1,$6,-1
	sc	$1,0($5)
	beq	$1,$0,1b
	addiu	$6,$6,-1
	sync
	.set	at
	.set	macro
	.set	reorder
	beq	$6,$0,$L338
$L315:
	sync
	lw	$2,0($4)
	sync
	beq	$7,$2,$L315
	lw	$16,12($17)
$L342:
	addiu	$19,$3,1
	.set	noreorder
	.set	nomacro
	.set	noat
	sync
1:
	ll	$4,12($16)
	bne	$4,$3,2f
	li	$2,0
	move	$1,$19
	sc	$1,12($16)
	beq	$1,$0,1b
	li	$2,1
	sync
2:
	.set	at
	.set	macro
	.set	reorder
	.set	noreorder
	.set	nomacro
	beql	$2,$0,$L341
	lw	$2,12($17)
	.set	macro
	.set	reorder

	lw	$2,0($16)
	lw	$25,8($2)
	.set	noreorder
	.set	nomacro
	jalr	$25
	move	$4,$16
	.set	macro
	.set	reorder

	sync
	lbu	$2,4($16)
	sync
	andi	$2,$2,0x00ff
	bne	$2,$0,$L339
	lw	$2,12($17)
$L341:
	lw	$2,8($2)
	slt	$2,$19,$2
	.set	noreorder
	.set	nomacro
	bne	$2,$0,$L310
	move	$3,$19
	.set	macro
	.set	reorder

	lw	$31,44($sp)
	lw	$19,40($sp)
	lw	$18,36($sp)
	lw	$17,32($sp)
	lw	$16,28($sp)
	.set	noreorder
	.set	nomacro
	jr	$31
	addiu	$sp,$sp,48
	.set	macro
	.set	reorder

	.cfi_remember_state
	.cfi_def_cfa_offset 0
	.cfi_restore 16
	.cfi_restore 17
	.cfi_restore 18
	.cfi_restore 19
	.cfi_restore 31
$L339:
	.cfi_restore_state
	.set	noreorder
	.set	nomacro
	.set	noat
	sync
1:
	ll	$1,16($16)
	addiu	$1,$1,1
	sc	$1,16($16)
	beq	$1,$0,1b
	nop
	sync
	.set	at
	.set	macro
	.set	reorder
	sync
	sb	$0,4($16)
	sync
	.set	noreorder
	.set	nomacro
	b	$L341
	lw	$2,12($17)
	.set	macro
	.set	reorder

$L338:
	sync
	lw	$5,0($2)
	sw	$5,4($2)
	sync
	.set	noreorder
	.set	nomacro
	.set	noat
	sync
1:
	ll	$1,0($4)
	addiu	$1,$1,1
	sc	$1,0($4)
	beq	$1,$0,1b
	nop
	sync
	.set	at
	.set	macro
	.set	reorder
	.set	noreorder
	.set	nomacro
	b	$L342
	lw	$16,12($17)
	.set	macro
	.set	reorder

$L337:
	sync
	lw	$5,0($2)
	sw	$5,4($2)
	sync
	.set	noreorder
	.set	nomacro
	.set	noat
	sync
1:
	ll	$1,0($4)
	addiu	$1,$1,1
	sc	$1,0($4)
	beq	$1,$0,1b
	nop
	sync
	.set	at
	.set	macro
	.set	reorder
	.set	noreorder
	.set	nomacro
	b	$L343
	lw	$2,4($17)
	.set	macro
	.set	reorder

$L336:
	.cfi_def_cfa_offset 0
	.cfi_restore 16
	.cfi_restore 17
	.cfi_restore 18
	.cfi_restore 19
	.cfi_restore 31
	sync
	lw	$3,0($2)
	sw	$3,4($2)
	sync
	.set	noreorder
	.set	nomacro
	.set	noat
	sync
1:
	ll	$1,0($5)
	addiu	$1,$1,1
	sc	$1,0($5)
	beq	$1,$0,1b
	nop
	sync
	.set	at
	.set	macro
	.set	reorder
	lw	$2,12($4)
	lw	$2,8($2)
	bgtz	$2,$L340
$L344:
	jr	$31
	.end	_ZNSt6thread11_State_implINS_8_InvokerISt5tupleIJZZN8TestCase7runImplIJZN13SeqCstAcqRel43runEvEUlvE_ZNS5_3runEvEUlvE0_ZNS5_3runEvEUlvE1_ZNS5_3runEvEUlvE2_EEE10TestResultDpT_ENKUlT_E_clIS7_EEDaSD_EUlvE_EEEEE6_M_runEv
	.cfi_endproc
$LFE7209:
	.size	_ZNSt6thread11_State_implINS_8_InvokerISt5tupleIJZZN8TestCase7runImplIJZN13SeqCstAcqRel43runEvEUlvE_ZNS5_3runEvEUlvE0_ZNS5_3runEvEUlvE1_ZNS5_3runEvEUlvE2_EEE10TestResultDpT_ENKUlT_E_clIS7_EEDaSD_EUlvE_EEEEE6_M_runEv, .-_ZNSt6thread11_State_implINS_8_InvokerISt5tupleIJZZN8TestCase7runImplIJZN13SeqCstAcqRel43runEvEUlvE_ZNS5_3runEvEUlvE0_ZNS5_3runEvEUlvE1_ZNS5_3runEvEUlvE2_EEE10TestResultDpT_ENKUlT_E_clIS7_EEDaSD_EUlvE_EEEEE6_M_runEv
	.section	.text._ZNSt6thread11_State_implINS_8_InvokerISt5tupleIJZZN8TestCase7runImplIJZN16IncrementRelaxed3runEvEUlvE_ZNS5_3runEvEUlvE0_EEE10TestResultDpT_ENKUlT_E_clIS6_EEDaSB_EUlvE_EEEEE6_M_runEv,"axG",@progbits,_ZNSt6thread11_State_implINS_8_InvokerISt5tupleIJZZN8TestCase7runImplIJZN16IncrementRelaxed3runEvEUlvE_ZNS5_3runEvEUlvE0_EEE10TestResultDpT_ENKUlT_E_clIS6_EEDaSB_EUlvE_EEEEE6_M_runEv,comdat
	.align	2
	.weak	_ZNSt6thread11_State_implINS_8_InvokerISt5tupleIJZZN8TestCase7runImplIJZN16IncrementRelaxed3runEvEUlvE_ZNS5_3runEvEUlvE0_EEE10TestResultDpT_ENKUlT_E_clIS6_EEDaSB_EUlvE_EEEEE6_M_runEv
$LFB7224 = .
	.cfi_startproc
	.set	nomips16
	.set	nomicromips
	.ent	_ZNSt6thread11_State_implINS_8_InvokerISt5tupleIJZZN8TestCase7runImplIJZN16IncrementRelaxed3runEvEUlvE_ZNS5_3runEvEUlvE0_EEE10TestResultDpT_ENKUlT_E_clIS6_EEDaSB_EUlvE_EEEEE6_M_runEv
	.type	_ZNSt6thread11_State_implINS_8_InvokerISt5tupleIJZZN8TestCase7runImplIJZN16IncrementRelaxed3runEvEUlvE_ZNS5_3runEvEUlvE0_EEE10TestResultDpT_ENKUlT_E_clIS6_EEDaSB_EUlvE_EEEEE6_M_runEv, @function
_ZNSt6thread11_State_implINS_8_InvokerISt5tupleIJZZN8TestCase7runImplIJZN16IncrementRelaxed3runEvEUlvE_ZNS5_3runEvEUlvE0_EEE10TestResultDpT_ENKUlT_E_clIS6_EEDaSB_EUlvE_EEEEE6_M_runEv:
	.frame	$sp,40,$31		# vars= 0, regs= 4/0, args= 16, gp= 8
	.mask	0x80070000,-4
	.fmask	0x00000000,0
	lw	$2,8($4)
	sync
	addiu	$5,$2,8
	lw	$7,8($2)
	addiu	$3,$2,4
	sync
	.set	noreorder
	.set	nomacro
	.set	noat
	sync
1:
	ll	$6,0($3)
	addiu	$1,$6,-1
	sc	$1,0($3)
	beq	$1,$0,1b
	addiu	$6,$6,-1
	sync
	.set	at
	.set	macro
	.set	reorder
	beq	$6,$0,$L374
$L346:
	sync
	lw	$2,0($5)
	sync
	beq	$7,$2,$L346
	lw	$2,12($4)
	lw	$2,8($2)
	blez	$2,$L382
$L378:
	addiu	$sp,$sp,-40
	.cfi_def_cfa_offset 40
	move	$3,$0
	sw	$17,28($sp)
	sw	$31,36($sp)
	sw	$18,32($sp)
	sw	$16,24($sp)
	.cfi_offset 17, -12
	.cfi_offset 31, -4
	.cfi_offset 18, -8
	.cfi_offset 16, -16
	move	$17,$4
$L348:
	lw	$2,16($17)
	sync
	addiu	$4,$2,8
	lw	$7,8($2)
	addiu	$5,$2,4
	sync
	.set	noreorder
	.set	nomacro
	.set	noat
	sync
1:
	ll	$6,0($5)
	addiu	$1,$6,-1
	sc	$1,0($5)
	beq	$1,$0,1b
	addiu	$6,$6,-1
	sync
	.set	at
	.set	macro
	.set	reorder
	beq	$6,$0,$L375
$L350:
	sync
	lw	$2,0($4)
	sync
	beq	$7,$2,$L350
	lw	$2,4($17)
$L381:
#APP
 # 136 "atomics.cpp" 1
	# marker IncrementRelaxed|Thread 0
 # 0 "" 2
#NO_APP
	.set	noreorder
	.set	nomacro
	.set	noat
	sync
1:
	ll	$1,20($2)
	addiu	$1,$1,1
	sc	$1,20($2)
	beq	$1,$0,1b
	nop
	sync
	.set	at
	.set	macro
	.set	reorder
#APP
 # 138 "atomics.cpp" 1
	# marker end
 # 0 "" 2
#NO_APP
	li	$2,1000			# 0x3e8
$L352:
	addiu	$2,$2,-1
	bne	$2,$0,$L352
	lw	$2,16($17)
	sync
	addiu	$4,$2,8
	lw	$7,8($2)
	addiu	$5,$2,4
	sync
	.set	noreorder
	.set	nomacro
	.set	noat
	sync
1:
	ll	$6,0($5)
	addiu	$1,$6,-1
	sc	$1,0($5)
	beq	$1,$0,1b
	addiu	$6,$6,-1
	sync
	.set	at
	.set	macro
	.set	reorder
	beq	$6,$0,$L376
$L353:
	sync
	lw	$2,0($4)
	sync
	beq	$7,$2,$L353
	lw	$16,12($17)
$L380:
	addiu	$18,$3,1
	.set	noreorder
	.set	nomacro
	.set	noat
	sync
1:
	ll	$4,12($16)
	bne	$4,$3,2f
	li	$2,0
	move	$1,$18
	sc	$1,12($16)
	beq	$1,$0,1b
	li	$2,1
	sync
2:
	.set	at
	.set	macro
	.set	reorder
	.set	noreorder
	.set	nomacro
	beql	$2,$0,$L379
	lw	$2,12($17)
	.set	macro
	.set	reorder

	lw	$2,0($16)
	lw	$25,8($2)
	.set	noreorder
	.set	nomacro
	jalr	$25
	move	$4,$16
	.set	macro
	.set	reorder

	sync
	lbu	$2,4($16)
	sync
	andi	$2,$2,0x00ff
	bne	$2,$0,$L377
	lw	$2,12($17)
$L379:
	lw	$2,8($2)
	slt	$2,$18,$2
	.set	noreorder
	.set	nomacro
	bne	$2,$0,$L348
	move	$3,$18
	.set	macro
	.set	reorder

	lw	$31,36($sp)
	lw	$18,32($sp)
	lw	$17,28($sp)
	lw	$16,24($sp)
	.set	noreorder
	.set	nomacro
	jr	$31
	addiu	$sp,$sp,40
	.set	macro
	.set	reorder

	.cfi_remember_state
	.cfi_def_cfa_offset 0
	.cfi_restore 16
	.cfi_restore 17
	.cfi_restore 18
	.cfi_restore 31
$L377:
	.cfi_restore_state
	.set	noreorder
	.set	nomacro
	.set	noat
	sync
1:
	ll	$1,16($16)
	addiu	$1,$1,1
	sc	$1,16($16)
	beq	$1,$0,1b
	nop
	sync
	.set	at
	.set	macro
	.set	reorder
	sync
	sb	$0,4($16)
	sync
	.set	noreorder
	.set	nomacro
	b	$L379
	lw	$2,12($17)
	.set	macro
	.set	reorder

$L376:
	sync
	lw	$5,0($2)
	sw	$5,4($2)
	sync
	.set	noreorder
	.set	nomacro
	.set	noat
	sync
1:
	ll	$1,0($4)
	addiu	$1,$1,1
	sc	$1,0($4)
	beq	$1,$0,1b
	nop
	sync
	.set	at
	.set	macro
	.set	reorder
	.set	noreorder
	.set	nomacro
	b	$L380
	lw	$16,12($17)
	.set	macro
	.set	reorder

$L375:
	sync
	lw	$5,0($2)
	sw	$5,4($2)
	sync
	.set	noreorder
	.set	nomacro
	.set	noat
	sync
1:
	ll	$1,0($4)
	addiu	$1,$1,1
	sc	$1,0($4)
	beq	$1,$0,1b
	nop
	sync
	.set	at
	.set	macro
	.set	reorder
	.set	noreorder
	.set	nomacro
	b	$L381
	lw	$2,4($17)
	.set	macro
	.set	reorder

$L374:
	.cfi_def_cfa_offset 0
	.cfi_restore 16
	.cfi_restore 17
	.cfi_restore 18
	.cfi_restore 31
	sync
	lw	$3,0($2)
	sw	$3,4($2)
	sync
	.set	noreorder
	.set	nomacro
	.set	noat
	sync
1:
	ll	$1,0($5)
	addiu	$1,$1,1
	sc	$1,0($5)
	beq	$1,$0,1b
	nop
	sync
	.set	at
	.set	macro
	.set	reorder
	lw	$2,12($4)
	lw	$2,8($2)
	bgtz	$2,$L378
$L382:
	jr	$31
	.end	_ZNSt6thread11_State_implINS_8_InvokerISt5tupleIJZZN8TestCase7runImplIJZN16IncrementRelaxed3runEvEUlvE_ZNS5_3runEvEUlvE0_EEE10TestResultDpT_ENKUlT_E_clIS6_EEDaSB_EUlvE_EEEEE6_M_runEv
	.cfi_endproc
$LFE7224:
	.size	_ZNSt6thread11_State_implINS_8_InvokerISt5tupleIJZZN8TestCase7runImplIJZN16IncrementRelaxed3runEvEUlvE_ZNS5_3runEvEUlvE0_EEE10TestResultDpT_ENKUlT_E_clIS6_EEDaSB_EUlvE_EEEEE6_M_runEv, .-_ZNSt6thread11_State_implINS_8_InvokerISt5tupleIJZZN8TestCase7runImplIJZN16IncrementRelaxed3runEvEUlvE_ZNS5_3runEvEUlvE0_EEE10TestResultDpT_ENKUlT_E_clIS6_EEDaSB_EUlvE_EEEEE6_M_runEv
	.section	.text._ZNSt6thread11_State_implINS_8_InvokerISt5tupleIJZZN8TestCase7runImplIJZN16IncrementRegular3runEvEUlvE_ZNS5_3runEvEUlvE0_EEE10TestResultDpT_ENKUlT_E_clIS6_EEDaSB_EUlvE_EEEEE6_M_runEv,"axG",@progbits,_ZNSt6thread11_State_implINS_8_InvokerISt5tupleIJZZN8TestCase7runImplIJZN16IncrementRegular3runEvEUlvE_ZNS5_3runEvEUlvE0_EEE10TestResultDpT_ENKUlT_E_clIS6_EEDaSB_EUlvE_EEEEE6_M_runEv,comdat
	.align	2
	.weak	_ZNSt6thread11_State_implINS_8_InvokerISt5tupleIJZZN8TestCase7runImplIJZN16IncrementRegular3runEvEUlvE_ZNS5_3runEvEUlvE0_EEE10TestResultDpT_ENKUlT_E_clIS6_EEDaSB_EUlvE_EEEEE6_M_runEv
$LFB7226 = .
	.cfi_startproc
	.set	nomips16
	.set	nomicromips
	.ent	_ZNSt6thread11_State_implINS_8_InvokerISt5tupleIJZZN8TestCase7runImplIJZN16IncrementRegular3runEvEUlvE_ZNS5_3runEvEUlvE0_EEE10TestResultDpT_ENKUlT_E_clIS6_EEDaSB_EUlvE_EEEEE6_M_runEv
	.type	_ZNSt6thread11_State_implINS_8_InvokerISt5tupleIJZZN8TestCase7runImplIJZN16IncrementRegular3runEvEUlvE_ZNS5_3runEvEUlvE0_EEE10TestResultDpT_ENKUlT_E_clIS6_EEDaSB_EUlvE_EEEEE6_M_runEv, @function
_ZNSt6thread11_State_implINS_8_InvokerISt5tupleIJZZN8TestCase7runImplIJZN16IncrementRegular3runEvEUlvE_ZNS5_3runEvEUlvE0_EEE10TestResultDpT_ENKUlT_E_clIS6_EEDaSB_EUlvE_EEEEE6_M_runEv:
	.frame	$sp,40,$31		# vars= 0, regs= 4/0, args= 16, gp= 8
	.mask	0x80070000,-4
	.fmask	0x00000000,0
	lw	$2,8($4)
	sync
	addiu	$5,$2,8
	lw	$7,8($2)
	addiu	$3,$2,4
	sync
	.set	noreorder
	.set	nomacro
	.set	noat
	sync
1:
	ll	$6,0($3)
	addiu	$1,$6,-1
	sc	$1,0($3)
	beq	$1,$0,1b
	addiu	$6,$6,-1
	sync
	.set	at
	.set	macro
	.set	reorder
	beq	$6,$0,$L412
$L384:
	sync
	lw	$2,0($5)
	sync
	beq	$7,$2,$L384
	lw	$2,12($4)
	lw	$2,8($2)
	blez	$2,$L420
$L416:
	addiu	$sp,$sp,-40
	.cfi_def_cfa_offset 40
	move	$3,$0
	sw	$17,28($sp)
	sw	$31,36($sp)
	sw	$18,32($sp)
	sw	$16,24($sp)
	.cfi_offset 17, -12
	.cfi_offset 31, -4
	.cfi_offset 18, -8
	.cfi_offset 16, -16
	move	$17,$4
$L386:
	lw	$2,16($17)
	sync
	addiu	$4,$2,8
	lw	$7,8($2)
	addiu	$5,$2,4
	sync
	.set	noreorder
	.set	nomacro
	.set	noat
	sync
1:
	ll	$6,0($5)
	addiu	$1,$6,-1
	sc	$1,0($5)
	beq	$1,$0,1b
	addiu	$6,$6,-1
	sync
	.set	at
	.set	macro
	.set	reorder
	beq	$6,$0,$L413
$L388:
	sync
	lw	$2,0($4)
	sync
	beq	$7,$2,$L388
	lw	$4,4($17)
$L419:
#APP
 # 110 "atomics.cpp" 1
	# marker IncrementRegular|Thread 0
 # 0 "" 2
#NO_APP
	lw	$2,20($4)
	addiu	$2,$2,1
	sw	$2,20($4)
#APP
 # 112 "atomics.cpp" 1
	# marker end
 # 0 "" 2
#NO_APP
	li	$2,1000			# 0x3e8
$L390:
	addiu	$2,$2,-1
	bne	$2,$0,$L390
	lw	$2,16($17)
	sync
	addiu	$4,$2,8
	lw	$7,8($2)
	addiu	$5,$2,4
	sync
	.set	noreorder
	.set	nomacro
	.set	noat
	sync
1:
	ll	$6,0($5)
	addiu	$1,$6,-1
	sc	$1,0($5)
	beq	$1,$0,1b
	addiu	$6,$6,-1
	sync
	.set	at
	.set	macro
	.set	reorder
	beq	$6,$0,$L414
$L391:
	sync
	lw	$2,0($4)
	sync
	beq	$7,$2,$L391
	lw	$16,12($17)
$L418:
	addiu	$18,$3,1
	.set	noreorder
	.set	nomacro
	.set	noat
	sync
1:
	ll	$4,12($16)
	bne	$4,$3,2f
	li	$2,0
	move	$1,$18
	sc	$1,12($16)
	beq	$1,$0,1b
	li	$2,1
	sync
2:
	.set	at
	.set	macro
	.set	reorder
	.set	noreorder
	.set	nomacro
	beql	$2,$0,$L417
	lw	$2,12($17)
	.set	macro
	.set	reorder

	lw	$2,0($16)
	lw	$25,8($2)
	.set	noreorder
	.set	nomacro
	jalr	$25
	move	$4,$16
	.set	macro
	.set	reorder

	sync
	lbu	$2,4($16)
	sync
	andi	$2,$2,0x00ff
	bne	$2,$0,$L415
	lw	$2,12($17)
$L417:
	lw	$2,8($2)
	slt	$2,$18,$2
	.set	noreorder
	.set	nomacro
	bne	$2,$0,$L386
	move	$3,$18
	.set	macro
	.set	reorder

	lw	$31,36($sp)
	lw	$18,32($sp)
	lw	$17,28($sp)
	lw	$16,24($sp)
	.set	noreorder
	.set	nomacro
	jr	$31
	addiu	$sp,$sp,40
	.set	macro
	.set	reorder

	.cfi_remember_state
	.cfi_def_cfa_offset 0
	.cfi_restore 16
	.cfi_restore 17
	.cfi_restore 18
	.cfi_restore 31
$L415:
	.cfi_restore_state
	.set	noreorder
	.set	nomacro
	.set	noat
	sync
1:
	ll	$1,16($16)
	addiu	$1,$1,1
	sc	$1,16($16)
	beq	$1,$0,1b
	nop
	sync
	.set	at
	.set	macro
	.set	reorder
	sync
	sb	$0,4($16)
	sync
	.set	noreorder
	.set	nomacro
	b	$L417
	lw	$2,12($17)
	.set	macro
	.set	reorder

$L414:
	sync
	lw	$5,0($2)
	sw	$5,4($2)
	sync
	.set	noreorder
	.set	nomacro
	.set	noat
	sync
1:
	ll	$1,0($4)
	addiu	$1,$1,1
	sc	$1,0($4)
	beq	$1,$0,1b
	nop
	sync
	.set	at
	.set	macro
	.set	reorder
	.set	noreorder
	.set	nomacro
	b	$L418
	lw	$16,12($17)
	.set	macro
	.set	reorder

$L413:
	sync
	lw	$5,0($2)
	sw	$5,4($2)
	sync
	.set	noreorder
	.set	nomacro
	.set	noat
	sync
1:
	ll	$1,0($4)
	addiu	$1,$1,1
	sc	$1,0($4)
	beq	$1,$0,1b
	nop
	sync
	.set	at
	.set	macro
	.set	reorder
	.set	noreorder
	.set	nomacro
	b	$L419
	lw	$4,4($17)
	.set	macro
	.set	reorder

$L412:
	.cfi_def_cfa_offset 0
	.cfi_restore 16
	.cfi_restore 17
	.cfi_restore 18
	.cfi_restore 31
	sync
	lw	$3,0($2)
	sw	$3,4($2)
	sync
	.set	noreorder
	.set	nomacro
	.set	noat
	sync
1:
	ll	$1,0($5)
	addiu	$1,$1,1
	sc	$1,0($5)
	beq	$1,$0,1b
	nop
	sync
	.set	at
	.set	macro
	.set	reorder
	lw	$2,12($4)
	lw	$2,8($2)
	bgtz	$2,$L416
$L420:
	jr	$31
	.end	_ZNSt6thread11_State_implINS_8_InvokerISt5tupleIJZZN8TestCase7runImplIJZN16IncrementRegular3runEvEUlvE_ZNS5_3runEvEUlvE0_EEE10TestResultDpT_ENKUlT_E_clIS6_EEDaSB_EUlvE_EEEEE6_M_runEv
	.cfi_endproc
$LFE7226:
	.size	_ZNSt6thread11_State_implINS_8_InvokerISt5tupleIJZZN8TestCase7runImplIJZN16IncrementRegular3runEvEUlvE_ZNS5_3runEvEUlvE0_EEE10TestResultDpT_ENKUlT_E_clIS6_EEDaSB_EUlvE_EEEEE6_M_runEv, .-_ZNSt6thread11_State_implINS_8_InvokerISt5tupleIJZZN8TestCase7runImplIJZN16IncrementRegular3runEvEUlvE_ZNS5_3runEvEUlvE0_EEE10TestResultDpT_ENKUlT_E_clIS6_EEDaSB_EUlvE_EEEEE6_M_runEv
	.section	.text._ZNSt6thread11_State_implINS_8_InvokerISt5tupleIJZZN8TestCase7runImplIJZN20SpinUseAcqRelRegular3runEvEUlvE_ZNS5_3runEvEUlvE0_EEE10TestResultDpT_ENKUlT_E_clIS6_EEDaSB_EUlvE_EEEEE6_M_runEv,"axG",@progbits,_ZNSt6thread11_State_implINS_8_InvokerISt5tupleIJZZN8TestCase7runImplIJZN20SpinUseAcqRelRegular3runEvEUlvE_ZNS5_3runEvEUlvE0_EEE10TestResultDpT_ENKUlT_E_clIS6_EEDaSB_EUlvE_EEEEE6_M_runEv,comdat
	.align	2
	.weak	_ZNSt6thread11_State_implINS_8_InvokerISt5tupleIJZZN8TestCase7runImplIJZN20SpinUseAcqRelRegular3runEvEUlvE_ZNS5_3runEvEUlvE0_EEE10TestResultDpT_ENKUlT_E_clIS6_EEDaSB_EUlvE_EEEEE6_M_runEv
$LFB7214 = .
	.cfi_startproc
	.set	nomips16
	.set	nomicromips
	.ent	_ZNSt6thread11_State_implINS_8_InvokerISt5tupleIJZZN8TestCase7runImplIJZN20SpinUseAcqRelRegular3runEvEUlvE_ZNS5_3runEvEUlvE0_EEE10TestResultDpT_ENKUlT_E_clIS6_EEDaSB_EUlvE_EEEEE6_M_runEv
	.type	_ZNSt6thread11_State_implINS_8_InvokerISt5tupleIJZZN8TestCase7runImplIJZN20SpinUseAcqRelRegular3runEvEUlvE_ZNS5_3runEvEUlvE0_EEE10TestResultDpT_ENKUlT_E_clIS6_EEDaSB_EUlvE_EEEEE6_M_runEv, @function
_ZNSt6thread11_State_implINS_8_InvokerISt5tupleIJZZN8TestCase7runImplIJZN20SpinUseAcqRelRegular3runEvEUlvE_ZNS5_3runEvEUlvE0_EEE10TestResultDpT_ENKUlT_E_clIS6_EEDaSB_EUlvE_EEEEE6_M_runEv:
	.frame	$sp,48,$31		# vars= 0, regs= 5/0, args= 16, gp= 8
	.mask	0x800f0000,-4
	.fmask	0x00000000,0
	lw	$2,8($4)
	sync
	addiu	$5,$2,8
	lw	$7,8($2)
	addiu	$3,$2,4
	sync
	.set	noreorder
	.set	nomacro
	.set	noat
	sync
1:
	ll	$6,0($3)
	addiu	$1,$6,-1
	sc	$1,0($3)
	beq	$1,$0,1b
	addiu	$6,$6,-1
	sync
	.set	at
	.set	macro
	.set	reorder
	beq	$6,$0,$L450
$L422:
	sync
	lw	$2,0($5)
	sync
	beq	$7,$2,$L422
	lw	$2,12($4)
	lw	$2,8($2)
	blez	$2,$L458
$L454:
	addiu	$sp,$sp,-48
	.cfi_def_cfa_offset 48
	move	$3,$0
	sw	$19,40($sp)
	sw	$17,32($sp)
	sw	$31,44($sp)
	sw	$18,36($sp)
	sw	$16,28($sp)
	.cfi_offset 19, -8
	.cfi_offset 17, -16
	.cfi_offset 31, -4
	.cfi_offset 18, -12
	.cfi_offset 16, -20
	move	$17,$4
	li	$19,1			# 0x1
$L424:
	lw	$2,16($17)
	sync
	addiu	$4,$2,8
	lw	$7,8($2)
	addiu	$5,$2,4
	sync
	.set	noreorder
	.set	nomacro
	.set	noat
	sync
1:
	ll	$6,0($5)
	addiu	$1,$6,-1
	sc	$1,0($5)
	beq	$1,$0,1b
	addiu	$6,$6,-1
	sync
	.set	at
	.set	macro
	.set	reorder
	beq	$6,$0,$L451
$L426:
	sync
	lw	$2,0($4)
	sync
	beq	$7,$2,$L426
	lw	$2,4($17)
$L457:
#APP
 # 291 "atomics.cpp" 1
	# marker SpinUseAcqRelRegular|Thread 0
 # 0 "" 2
#NO_APP
	sw	$19,24($2)
	sync
	sw	$19,20($2)
#APP
 # 294 "atomics.cpp" 1
	# marker end
 # 0 "" 2
#NO_APP
	li	$2,1000			# 0x3e8
$L428:
	addiu	$2,$2,-1
	bne	$2,$0,$L428
	lw	$2,16($17)
	sync
	addiu	$4,$2,8
	lw	$7,8($2)
	addiu	$5,$2,4
	sync
	.set	noreorder
	.set	nomacro
	.set	noat
	sync
1:
	ll	$6,0($5)
	addiu	$1,$6,-1
	sc	$1,0($5)
	beq	$1,$0,1b
	addiu	$6,$6,-1
	sync
	.set	at
	.set	macro
	.set	reorder
	beq	$6,$0,$L452
$L429:
	sync
	lw	$2,0($4)
	sync
	beq	$7,$2,$L429
	lw	$16,12($17)
$L456:
	addiu	$18,$3,1
	.set	noreorder
	.set	nomacro
	.set	noat
	sync
1:
	ll	$4,12($16)
	bne	$4,$3,2f
	li	$2,0
	move	$1,$18
	sc	$1,12($16)
	beq	$1,$0,1b
	li	$2,1
	sync
2:
	.set	at
	.set	macro
	.set	reorder
	.set	noreorder
	.set	nomacro
	beql	$2,$0,$L455
	lw	$2,12($17)
	.set	macro
	.set	reorder

	lw	$2,0($16)
	lw	$25,8($2)
	.set	noreorder
	.set	nomacro
	jalr	$25
	move	$4,$16
	.set	macro
	.set	reorder

	sync
	lbu	$2,4($16)
	sync
	andi	$2,$2,0x00ff
	bne	$2,$0,$L453
	lw	$2,12($17)
$L455:
	lw	$2,8($2)
	slt	$2,$18,$2
	.set	noreorder
	.set	nomacro
	bne	$2,$0,$L424
	move	$3,$18
	.set	macro
	.set	reorder

	lw	$31,44($sp)
	lw	$19,40($sp)
	lw	$18,36($sp)
	lw	$17,32($sp)
	lw	$16,28($sp)
	.set	noreorder
	.set	nomacro
	jr	$31
	addiu	$sp,$sp,48
	.set	macro
	.set	reorder

	.cfi_remember_state
	.cfi_def_cfa_offset 0
	.cfi_restore 16
	.cfi_restore 17
	.cfi_restore 18
	.cfi_restore 19
	.cfi_restore 31
$L453:
	.cfi_restore_state
	.set	noreorder
	.set	nomacro
	.set	noat
	sync
1:
	ll	$1,16($16)
	addiu	$1,$1,1
	sc	$1,16($16)
	beq	$1,$0,1b
	nop
	sync
	.set	at
	.set	macro
	.set	reorder
	sync
	sb	$0,4($16)
	sync
	.set	noreorder
	.set	nomacro
	b	$L455
	lw	$2,12($17)
	.set	macro
	.set	reorder

$L452:
	sync
	lw	$5,0($2)
	sw	$5,4($2)
	sync
	.set	noreorder
	.set	nomacro
	.set	noat
	sync
1:
	ll	$1,0($4)
	addiu	$1,$1,1
	sc	$1,0($4)
	beq	$1,$0,1b
	nop
	sync
	.set	at
	.set	macro
	.set	reorder
	.set	noreorder
	.set	nomacro
	b	$L456
	lw	$16,12($17)
	.set	macro
	.set	reorder

$L451:
	sync
	lw	$5,0($2)
	sw	$5,4($2)
	sync
	.set	noreorder
	.set	nomacro
	.set	noat
	sync
1:
	ll	$1,0($4)
	addiu	$1,$1,1
	sc	$1,0($4)
	beq	$1,$0,1b
	nop
	sync
	.set	at
	.set	macro
	.set	reorder
	.set	noreorder
	.set	nomacro
	b	$L457
	lw	$2,4($17)
	.set	macro
	.set	reorder

$L450:
	.cfi_def_cfa_offset 0
	.cfi_restore 16
	.cfi_restore 17
	.cfi_restore 18
	.cfi_restore 19
	.cfi_restore 31
	sync
	lw	$3,0($2)
	sw	$3,4($2)
	sync
	.set	noreorder
	.set	nomacro
	.set	noat
	sync
1:
	ll	$1,0($5)
	addiu	$1,$1,1
	sc	$1,0($5)
	beq	$1,$0,1b
	nop
	sync
	.set	at
	.set	macro
	.set	reorder
	lw	$2,12($4)
	lw	$2,8($2)
	bgtz	$2,$L454
$L458:
	jr	$31
	.end	_ZNSt6thread11_State_implINS_8_InvokerISt5tupleIJZZN8TestCase7runImplIJZN20SpinUseAcqRelRegular3runEvEUlvE_ZNS5_3runEvEUlvE0_EEE10TestResultDpT_ENKUlT_E_clIS6_EEDaSB_EUlvE_EEEEE6_M_runEv
	.cfi_endproc
$LFE7214:
	.size	_ZNSt6thread11_State_implINS_8_InvokerISt5tupleIJZZN8TestCase7runImplIJZN20SpinUseAcqRelRegular3runEvEUlvE_ZNS5_3runEvEUlvE0_EEE10TestResultDpT_ENKUlT_E_clIS6_EEDaSB_EUlvE_EEEEE6_M_runEv, .-_ZNSt6thread11_State_implINS_8_InvokerISt5tupleIJZZN8TestCase7runImplIJZN20SpinUseAcqRelRegular3runEvEUlvE_ZNS5_3runEvEUlvE0_EEE10TestResultDpT_ENKUlT_E_clIS6_EEDaSB_EUlvE_EEEEE6_M_runEv
	.section	.text._ZNSt6thread11_State_implINS_8_InvokerISt5tupleIJZZN8TestCase7runImplIJZN14SpinUseRelaxed3runEvEUlvE_ZNS5_3runEvEUlvE0_EEE10TestResultDpT_ENKUlT_E_clIS7_EEDaSB_EUlvE_EEEEE6_M_runEv,"axG",@progbits,_ZNSt6thread11_State_implINS_8_InvokerISt5tupleIJZZN8TestCase7runImplIJZN14SpinUseRelaxed3runEvEUlvE_ZNS5_3runEvEUlvE0_EEE10TestResultDpT_ENKUlT_E_clIS7_EEDaSB_EUlvE_EEEEE6_M_runEv,comdat
	.align	2
	.weak	_ZNSt6thread11_State_implINS_8_InvokerISt5tupleIJZZN8TestCase7runImplIJZN14SpinUseRelaxed3runEvEUlvE_ZNS5_3runEvEUlvE0_EEE10TestResultDpT_ENKUlT_E_clIS7_EEDaSB_EUlvE_EEEEE6_M_runEv
$LFB7217 = .
	.cfi_startproc
	.set	nomips16
	.set	nomicromips
	.ent	_ZNSt6thread11_State_implINS_8_InvokerISt5tupleIJZZN8TestCase7runImplIJZN14SpinUseRelaxed3runEvEUlvE_ZNS5_3runEvEUlvE0_EEE10TestResultDpT_ENKUlT_E_clIS7_EEDaSB_EUlvE_EEEEE6_M_runEv
	.type	_ZNSt6thread11_State_implINS_8_InvokerISt5tupleIJZZN8TestCase7runImplIJZN14SpinUseRelaxed3runEvEUlvE_ZNS5_3runEvEUlvE0_EEE10TestResultDpT_ENKUlT_E_clIS7_EEDaSB_EUlvE_EEEEE6_M_runEv, @function
_ZNSt6thread11_State_implINS_8_InvokerISt5tupleIJZZN8TestCase7runImplIJZN14SpinUseRelaxed3runEvEUlvE_ZNS5_3runEvEUlvE0_EEE10TestResultDpT_ENKUlT_E_clIS7_EEDaSB_EUlvE_EEEEE6_M_runEv:
	.frame	$sp,48,$31		# vars= 0, regs= 5/0, args= 16, gp= 8
	.mask	0x800f0000,-4
	.fmask	0x00000000,0
	lw	$2,8($4)
	sync
	addiu	$5,$2,8
	lw	$7,8($2)
	addiu	$3,$2,4
	sync
	.set	noreorder
	.set	nomacro
	.set	noat
	sync
1:
	ll	$6,0($3)
	addiu	$1,$6,-1
	sc	$1,0($3)
	beq	$1,$0,1b
	addiu	$6,$6,-1
	sync
	.set	at
	.set	macro
	.set	reorder
	beq	$6,$0,$L492
$L460:
	sync
	lw	$2,0($5)
	sync
	beq	$7,$2,$L460
	lw	$2,12($4)
	lw	$2,8($2)
	blez	$2,$L501
$L497:
	addiu	$sp,$sp,-48
	.cfi_def_cfa_offset 48
	move	$3,$0
	sw	$19,40($sp)
	sw	$17,32($sp)
	sw	$31,44($sp)
	sw	$18,36($sp)
	sw	$16,28($sp)
	.cfi_offset 19, -8
	.cfi_offset 17, -16
	.cfi_offset 31, -4
	.cfi_offset 18, -12
	.cfi_offset 16, -20
	move	$17,$4
	li	$19,1			# 0x1
$L462:
	lw	$2,16($17)
	sync
	addiu	$4,$2,8
	lw	$7,8($2)
	addiu	$5,$2,4
	sync
	.set	noreorder
	.set	nomacro
	.set	noat
	sync
1:
	ll	$6,0($5)
	addiu	$1,$6,-1
	sc	$1,0($5)
	beq	$1,$0,1b
	addiu	$6,$6,-1
	sync
	.set	at
	.set	macro
	.set	reorder
	beq	$6,$0,$L493
$L464:
	sync
	lw	$2,0($4)
	sync
	beq	$7,$2,$L464
	lw	$2,4($17)
$L498:
#APP
 # 238 "atomics.cpp" 1
	# marker SpinUseRelaxed|Thread 1
 # 0 "" 2
#NO_APP
	addiu	$4,$2,20
$L466:
	lw	$5,0($4)
	beq	$5,$0,$L466
	lw	$2,24($2)
#APP
 # 241 "atomics.cpp" 1
	# marker end
 # 0 "" 2
#NO_APP
	.set	noreorder
	.set	nomacro
	bnel	$2,$19,$L494
	lw	$2,4($17)
	.set	macro
	.set	reorder

	li	$2,1000			# 0x3e8
$L468:
	addiu	$2,$2,-1
	bne	$2,$0,$L468
	lw	$2,16($17)
	sync
	addiu	$4,$2,8
	lw	$7,8($2)
	addiu	$5,$2,4
	sync
	.set	noreorder
	.set	nomacro
	.set	noat
	sync
1:
	ll	$6,0($5)
	addiu	$1,$6,-1
	sc	$1,0($5)
	beq	$1,$0,1b
	addiu	$6,$6,-1
	sync
	.set	at
	.set	macro
	.set	reorder
	beq	$6,$0,$L495
$L469:
	sync
	lw	$2,0($4)
	sync
	beq	$7,$2,$L469
	lw	$16,12($17)
$L499:
	addiu	$18,$3,1
	.set	noreorder
	.set	nomacro
	.set	noat
	sync
1:
	ll	$4,12($16)
	bne	$4,$3,2f
	li	$2,0
	move	$1,$18
	sc	$1,12($16)
	beq	$1,$0,1b
	li	$2,1
	sync
2:
	.set	at
	.set	macro
	.set	reorder
	.set	noreorder
	.set	nomacro
	beql	$2,$0,$L500
	lw	$2,12($17)
	.set	macro
	.set	reorder

	lw	$2,0($16)
	lw	$25,8($2)
	.set	noreorder
	.set	nomacro
	jalr	$25
	move	$4,$16
	.set	macro
	.set	reorder

	sync
	lbu	$2,4($16)
	sync
	andi	$2,$2,0x00ff
	bne	$2,$0,$L496
	lw	$2,12($17)
$L500:
	lw	$2,8($2)
	slt	$2,$18,$2
	.set	noreorder
	.set	nomacro
	bne	$2,$0,$L462
	move	$3,$18
	.set	macro
	.set	reorder

	lw	$31,44($sp)
	lw	$19,40($sp)
	lw	$18,36($sp)
	lw	$17,32($sp)
	lw	$16,28($sp)
	.set	noreorder
	.set	nomacro
	jr	$31
	addiu	$sp,$sp,48
	.set	macro
	.set	reorder

	.cfi_remember_state
	.cfi_def_cfa_offset 0
	.cfi_restore 16
	.cfi_restore 17
	.cfi_restore 18
	.cfi_restore 19
	.cfi_restore 31
$L494:
	.cfi_restore_state
	sync
	sb	$19,4($2)
	sync
	.set	noreorder
	.set	nomacro
	b	$L468
	li	$2,1000			# 0x3e8
	.set	macro
	.set	reorder

$L493:
	sync
	lw	$5,0($2)
	sw	$5,4($2)
	sync
	.set	noreorder
	.set	nomacro
	.set	noat
	sync
1:
	ll	$1,0($4)
	addiu	$1,$1,1
	sc	$1,0($4)
	beq	$1,$0,1b
	nop
	sync
	.set	at
	.set	macro
	.set	reorder
	.set	noreorder
	.set	nomacro
	b	$L498
	lw	$2,4($17)
	.set	macro
	.set	reorder

$L495:
	sync
	lw	$5,0($2)
	sw	$5,4($2)
	sync
	.set	noreorder
	.set	nomacro
	.set	noat
	sync
1:
	ll	$1,0($4)
	addiu	$1,$1,1
	sc	$1,0($4)
	beq	$1,$0,1b
	nop
	sync
	.set	at
	.set	macro
	.set	reorder
	.set	noreorder
	.set	nomacro
	b	$L499
	lw	$16,12($17)
	.set	macro
	.set	reorder

$L496:
	.set	noreorder
	.set	nomacro
	.set	noat
	sync
1:
	ll	$1,16($16)
	addiu	$1,$1,1
	sc	$1,16($16)
	beq	$1,$0,1b
	nop
	sync
	.set	at
	.set	macro
	.set	reorder
	sync
	sb	$0,4($16)
	sync
	.set	noreorder
	.set	nomacro
	b	$L500
	lw	$2,12($17)
	.set	macro
	.set	reorder

$L492:
	.cfi_def_cfa_offset 0
	.cfi_restore 16
	.cfi_restore 17
	.cfi_restore 18
	.cfi_restore 19
	.cfi_restore 31
	sync
	lw	$3,0($2)
	sw	$3,4($2)
	sync
	.set	noreorder
	.set	nomacro
	.set	noat
	sync
1:
	ll	$1,0($5)
	addiu	$1,$1,1
	sc	$1,0($5)
	beq	$1,$0,1b
	nop
	sync
	.set	at
	.set	macro
	.set	reorder
	lw	$2,12($4)
	lw	$2,8($2)
	bgtz	$2,$L497
$L501:
	jr	$31
	.end	_ZNSt6thread11_State_implINS_8_InvokerISt5tupleIJZZN8TestCase7runImplIJZN14SpinUseRelaxed3runEvEUlvE_ZNS5_3runEvEUlvE0_EEE10TestResultDpT_ENKUlT_E_clIS7_EEDaSB_EUlvE_EEEEE6_M_runEv
	.cfi_endproc
$LFE7217:
	.size	_ZNSt6thread11_State_implINS_8_InvokerISt5tupleIJZZN8TestCase7runImplIJZN14SpinUseRelaxed3runEvEUlvE_ZNS5_3runEvEUlvE0_EEE10TestResultDpT_ENKUlT_E_clIS7_EEDaSB_EUlvE_EEEEE6_M_runEv, .-_ZNSt6thread11_State_implINS_8_InvokerISt5tupleIJZZN8TestCase7runImplIJZN14SpinUseRelaxed3runEvEUlvE_ZNS5_3runEvEUlvE0_EEE10TestResultDpT_ENKUlT_E_clIS7_EEDaSB_EUlvE_EEEEE6_M_runEv
	.section	.text._ZNSt6thread11_State_implINS_8_InvokerISt5tupleIJZZN8TestCase7runImplIJZN13SeqCstAcqRel23runEvEUlvE_ZNS5_3runEvEUlvE0_EEE10TestResultDpT_ENKUlT_E_clIS7_EEDaSB_EUlvE_EEEEE6_M_runEv,"axG",@progbits,_ZNSt6thread11_State_implINS_8_InvokerISt5tupleIJZZN8TestCase7runImplIJZN13SeqCstAcqRel23runEvEUlvE_ZNS5_3runEvEUlvE0_EEE10TestResultDpT_ENKUlT_E_clIS7_EEDaSB_EUlvE_EEEEE6_M_runEv,comdat
	.align	2
	.weak	_ZNSt6thread11_State_implINS_8_InvokerISt5tupleIJZZN8TestCase7runImplIJZN13SeqCstAcqRel23runEvEUlvE_ZNS5_3runEvEUlvE0_EEE10TestResultDpT_ENKUlT_E_clIS7_EEDaSB_EUlvE_EEEEE6_M_runEv
$LFB7201 = .
	.cfi_startproc
	.set	nomips16
	.set	nomicromips
	.ent	_ZNSt6thread11_State_implINS_8_InvokerISt5tupleIJZZN8TestCase7runImplIJZN13SeqCstAcqRel23runEvEUlvE_ZNS5_3runEvEUlvE0_EEE10TestResultDpT_ENKUlT_E_clIS7_EEDaSB_EUlvE_EEEEE6_M_runEv
	.type	_ZNSt6thread11_State_implINS_8_InvokerISt5tupleIJZZN8TestCase7runImplIJZN13SeqCstAcqRel23runEvEUlvE_ZNS5_3runEvEUlvE0_EEE10TestResultDpT_ENKUlT_E_clIS7_EEDaSB_EUlvE_EEEEE6_M_runEv, @function
_ZNSt6thread11_State_implINS_8_InvokerISt5tupleIJZZN8TestCase7runImplIJZN13SeqCstAcqRel23runEvEUlvE_ZNS5_3runEvEUlvE0_EEE10TestResultDpT_ENKUlT_E_clIS7_EEDaSB_EUlvE_EEEEE6_M_runEv:
	.frame	$sp,48,$31		# vars= 0, regs= 5/0, args= 16, gp= 8
	.mask	0x800f0000,-4
	.fmask	0x00000000,0
	lw	$2,8($4)
	sync
	addiu	$5,$2,8
	lw	$7,8($2)
	addiu	$3,$2,4
	sync
	.set	noreorder
	.set	nomacro
	.set	noat
	sync
1:
	ll	$6,0($3)
	addiu	$1,$6,-1
	sc	$1,0($3)
	beq	$1,$0,1b
	addiu	$6,$6,-1
	sync
	.set	at
	.set	macro
	.set	reorder
	beq	$6,$0,$L531
$L503:
	sync
	lw	$2,0($5)
	sync
	beq	$7,$2,$L503
	lw	$2,12($4)
	lw	$2,8($2)
	blez	$2,$L539
$L535:
	addiu	$sp,$sp,-48
	.cfi_def_cfa_offset 48
	move	$3,$0
	sw	$18,36($sp)
	sw	$17,32($sp)
	sw	$31,44($sp)
	sw	$19,40($sp)
	sw	$16,28($sp)
	.cfi_offset 18, -12
	.cfi_offset 17, -16
	.cfi_offset 31, -4
	.cfi_offset 19, -8
	.cfi_offset 16, -20
	move	$17,$4
	li	$18,1			# 0x1
$L505:
	lw	$2,16($17)
	sync
	addiu	$4,$2,8
	lw	$7,8($2)
	addiu	$5,$2,4
	sync
	.set	noreorder
	.set	nomacro
	.set	noat
	sync
1:
	ll	$6,0($5)
	addiu	$1,$6,-1
	sc	$1,0($5)
	beq	$1,$0,1b
	addiu	$6,$6,-1
	sync
	.set	at
	.set	macro
	.set	reorder
	beq	$6,$0,$L532
$L507:
	sync
	lw	$2,0($4)
	sync
	beq	$7,$2,$L507
	lw	$2,4($17)
$L538:
#APP
 # 471 "atomics.cpp" 1
	# marker SeqCstAcqRel2|Thread 1
 # 0 "" 2
#NO_APP
	sync
	sw	$18,24($2)
	lw	$5,20($2)
	sync
#APP
 # 474 "atomics.cpp" 1
	# marker end
 # 0 "" 2
#NO_APP
	lw	$4,4($17)
	li	$2,1000			# 0x3e8
	sw	$5,32($4)
$L509:
	addiu	$2,$2,-1
	bne	$2,$0,$L509
	lw	$2,16($17)
	sync
	addiu	$4,$2,8
	lw	$7,8($2)
	addiu	$5,$2,4
	sync
	.set	noreorder
	.set	nomacro
	.set	noat
	sync
1:
	ll	$6,0($5)
	addiu	$1,$6,-1
	sc	$1,0($5)
	beq	$1,$0,1b
	addiu	$6,$6,-1
	sync
	.set	at
	.set	macro
	.set	reorder
	beq	$6,$0,$L533
$L510:
	sync
	lw	$2,0($4)
	sync
	beq	$7,$2,$L510
	lw	$16,12($17)
$L537:
	addiu	$19,$3,1
	.set	noreorder
	.set	nomacro
	.set	noat
	sync
1:
	ll	$4,12($16)
	bne	$4,$3,2f
	li	$2,0
	move	$1,$19
	sc	$1,12($16)
	beq	$1,$0,1b
	li	$2,1
	sync
2:
	.set	at
	.set	macro
	.set	reorder
	.set	noreorder
	.set	nomacro
	beql	$2,$0,$L536
	lw	$2,12($17)
	.set	macro
	.set	reorder

	lw	$2,0($16)
	lw	$25,8($2)
	.set	noreorder
	.set	nomacro
	jalr	$25
	move	$4,$16
	.set	macro
	.set	reorder

	sync
	lbu	$2,4($16)
	sync
	andi	$2,$2,0x00ff
	bne	$2,$0,$L534
	lw	$2,12($17)
$L536:
	lw	$2,8($2)
	slt	$2,$19,$2
	.set	noreorder
	.set	nomacro
	bne	$2,$0,$L505
	move	$3,$19
	.set	macro
	.set	reorder

	lw	$31,44($sp)
	lw	$19,40($sp)
	lw	$18,36($sp)
	lw	$17,32($sp)
	lw	$16,28($sp)
	.set	noreorder
	.set	nomacro
	jr	$31
	addiu	$sp,$sp,48
	.set	macro
	.set	reorder

	.cfi_remember_state
	.cfi_def_cfa_offset 0
	.cfi_restore 16
	.cfi_restore 17
	.cfi_restore 18
	.cfi_restore 19
	.cfi_restore 31
$L534:
	.cfi_restore_state
	.set	noreorder
	.set	nomacro
	.set	noat
	sync
1:
	ll	$1,16($16)
	addiu	$1,$1,1
	sc	$1,16($16)
	beq	$1,$0,1b
	nop
	sync
	.set	at
	.set	macro
	.set	reorder
	sync
	sb	$0,4($16)
	sync
	.set	noreorder
	.set	nomacro
	b	$L536
	lw	$2,12($17)
	.set	macro
	.set	reorder

$L533:
	sync
	lw	$5,0($2)
	sw	$5,4($2)
	sync
	.set	noreorder
	.set	nomacro
	.set	noat
	sync
1:
	ll	$1,0($4)
	addiu	$1,$1,1
	sc	$1,0($4)
	beq	$1,$0,1b
	nop
	sync
	.set	at
	.set	macro
	.set	reorder
	.set	noreorder
	.set	nomacro
	b	$L537
	lw	$16,12($17)
	.set	macro
	.set	reorder

$L532:
	sync
	lw	$5,0($2)
	sw	$5,4($2)
	sync
	.set	noreorder
	.set	nomacro
	.set	noat
	sync
1:
	ll	$1,0($4)
	addiu	$1,$1,1
	sc	$1,0($4)
	beq	$1,$0,1b
	nop
	sync
	.set	at
	.set	macro
	.set	reorder
	.set	noreorder
	.set	nomacro
	b	$L538
	lw	$2,4($17)
	.set	macro
	.set	reorder

$L531:
	.cfi_def_cfa_offset 0
	.cfi_restore 16
	.cfi_restore 17
	.cfi_restore 18
	.cfi_restore 19
	.cfi_restore 31
	sync
	lw	$3,0($2)
	sw	$3,4($2)
	sync
	.set	noreorder
	.set	nomacro
	.set	noat
	sync
1:
	ll	$1,0($5)
	addiu	$1,$1,1
	sc	$1,0($5)
	beq	$1,$0,1b
	nop
	sync
	.set	at
	.set	macro
	.set	reorder
	lw	$2,12($4)
	lw	$2,8($2)
	bgtz	$2,$L535
$L539:
	jr	$31
	.end	_ZNSt6thread11_State_implINS_8_InvokerISt5tupleIJZZN8TestCase7runImplIJZN13SeqCstAcqRel23runEvEUlvE_ZNS5_3runEvEUlvE0_EEE10TestResultDpT_ENKUlT_E_clIS7_EEDaSB_EUlvE_EEEEE6_M_runEv
	.cfi_endproc
$LFE7201:
	.size	_ZNSt6thread11_State_implINS_8_InvokerISt5tupleIJZZN8TestCase7runImplIJZN13SeqCstAcqRel23runEvEUlvE_ZNS5_3runEvEUlvE0_EEE10TestResultDpT_ENKUlT_E_clIS7_EEDaSB_EUlvE_EEEEE6_M_runEv, .-_ZNSt6thread11_State_implINS_8_InvokerISt5tupleIJZZN8TestCase7runImplIJZN13SeqCstAcqRel23runEvEUlvE_ZNS5_3runEvEUlvE0_EEE10TestResultDpT_ENKUlT_E_clIS7_EEDaSB_EUlvE_EEEEE6_M_runEv
	.section	.text._ZNSt6thread11_State_implINS_8_InvokerISt5tupleIJZZN8TestCase7runImplIJZN13SpinUseSeqCst3runEvEUlvE_ZNS5_3runEvEUlvE0_EEE10TestResultDpT_ENKUlT_E_clIS7_EEDaSB_EUlvE_EEEEE6_M_runEv,"axG",@progbits,_ZNSt6thread11_State_implINS_8_InvokerISt5tupleIJZZN8TestCase7runImplIJZN13SpinUseSeqCst3runEvEUlvE_ZNS5_3runEvEUlvE0_EEE10TestResultDpT_ENKUlT_E_clIS7_EEDaSB_EUlvE_EEEEE6_M_runEv,comdat
	.align	2
	.weak	_ZNSt6thread11_State_implINS_8_InvokerISt5tupleIJZZN8TestCase7runImplIJZN13SpinUseSeqCst3runEvEUlvE_ZNS5_3runEvEUlvE0_EEE10TestResultDpT_ENKUlT_E_clIS7_EEDaSB_EUlvE_EEEEE6_M_runEv
$LFB7211 = .
	.cfi_startproc
	.set	nomips16
	.set	nomicromips
	.ent	_ZNSt6thread11_State_implINS_8_InvokerISt5tupleIJZZN8TestCase7runImplIJZN13SpinUseSeqCst3runEvEUlvE_ZNS5_3runEvEUlvE0_EEE10TestResultDpT_ENKUlT_E_clIS7_EEDaSB_EUlvE_EEEEE6_M_runEv
	.type	_ZNSt6thread11_State_implINS_8_InvokerISt5tupleIJZZN8TestCase7runImplIJZN13SpinUseSeqCst3runEvEUlvE_ZNS5_3runEvEUlvE0_EEE10TestResultDpT_ENKUlT_E_clIS7_EEDaSB_EUlvE_EEEEE6_M_runEv, @function
_ZNSt6thread11_State_implINS_8_InvokerISt5tupleIJZZN8TestCase7runImplIJZN13SpinUseSeqCst3runEvEUlvE_ZNS5_3runEvEUlvE0_EEE10TestResultDpT_ENKUlT_E_clIS7_EEDaSB_EUlvE_EEEEE6_M_runEv:
	.frame	$sp,48,$31		# vars= 0, regs= 5/0, args= 16, gp= 8
	.mask	0x800f0000,-4
	.fmask	0x00000000,0
	lw	$2,8($4)
	sync
	addiu	$5,$2,8
	lw	$7,8($2)
	addiu	$3,$2,4
	sync
	.set	noreorder
	.set	nomacro
	.set	noat
	sync
1:
	ll	$6,0($3)
	addiu	$1,$6,-1
	sc	$1,0($3)
	beq	$1,$0,1b
	addiu	$6,$6,-1
	sync
	.set	at
	.set	macro
	.set	reorder
	beq	$6,$0,$L573
$L541:
	sync
	lw	$2,0($5)
	sync
	beq	$7,$2,$L541
	lw	$2,12($4)
	lw	$2,8($2)
	blez	$2,$L582
$L578:
	addiu	$sp,$sp,-48
	.cfi_def_cfa_offset 48
	move	$3,$0
	sw	$19,40($sp)
	sw	$17,32($sp)
	sw	$31,44($sp)
	sw	$18,36($sp)
	sw	$16,28($sp)
	.cfi_offset 19, -8
	.cfi_offset 17, -16
	.cfi_offset 31, -4
	.cfi_offset 18, -12
	.cfi_offset 16, -20
	move	$17,$4
	li	$19,1			# 0x1
$L543:
	lw	$2,16($17)
	sync
	addiu	$4,$2,8
	lw	$7,8($2)
	addiu	$5,$2,4
	sync
	.set	noreorder
	.set	nomacro
	.set	noat
	sync
1:
	ll	$6,0($5)
	addiu	$1,$6,-1
	sc	$1,0($5)
	beq	$1,$0,1b
	addiu	$6,$6,-1
	sync
	.set	at
	.set	macro
	.set	reorder
	beq	$6,$0,$L574
$L545:
	sync
	lw	$2,0($4)
	sync
	beq	$7,$2,$L545
	lw	$2,4($17)
$L579:
#APP
 # 333 "atomics.cpp" 1
	# marker SpinUseSeqCst|Thread 1
 # 0 "" 2
#NO_APP
	addiu	$4,$2,20
$L547:
	sync
	lw	$5,0($4)
	sync
	beq	$5,$0,$L547
	sync
	lw	$2,24($2)
	sync
#APP
 # 336 "atomics.cpp" 1
	# marker end
 # 0 "" 2
#NO_APP
	.set	noreorder
	.set	nomacro
	bnel	$2,$19,$L575
	lw	$2,4($17)
	.set	macro
	.set	reorder

	li	$2,1000			# 0x3e8
$L549:
	addiu	$2,$2,-1
	bne	$2,$0,$L549
	lw	$2,16($17)
	sync
	addiu	$4,$2,8
	lw	$7,8($2)
	addiu	$5,$2,4
	sync
	.set	noreorder
	.set	nomacro
	.set	noat
	sync
1:
	ll	$6,0($5)
	addiu	$1,$6,-1
	sc	$1,0($5)
	beq	$1,$0,1b
	addiu	$6,$6,-1
	sync
	.set	at
	.set	macro
	.set	reorder
	beq	$6,$0,$L576
$L550:
	sync
	lw	$2,0($4)
	sync
	beq	$7,$2,$L550
	lw	$16,12($17)
$L580:
	addiu	$18,$3,1
	.set	noreorder
	.set	nomacro
	.set	noat
	sync
1:
	ll	$4,12($16)
	bne	$4,$3,2f
	li	$2,0
	move	$1,$18
	sc	$1,12($16)
	beq	$1,$0,1b
	li	$2,1
	sync
2:
	.set	at
	.set	macro
	.set	reorder
	.set	noreorder
	.set	nomacro
	beql	$2,$0,$L581
	lw	$2,12($17)
	.set	macro
	.set	reorder

	lw	$2,0($16)
	lw	$25,8($2)
	.set	noreorder
	.set	nomacro
	jalr	$25
	move	$4,$16
	.set	macro
	.set	reorder

	sync
	lbu	$2,4($16)
	sync
	andi	$2,$2,0x00ff
	bne	$2,$0,$L577
	lw	$2,12($17)
$L581:
	lw	$2,8($2)
	slt	$2,$18,$2
	.set	noreorder
	.set	nomacro
	bne	$2,$0,$L543
	move	$3,$18
	.set	macro
	.set	reorder

	lw	$31,44($sp)
	lw	$19,40($sp)
	lw	$18,36($sp)
	lw	$17,32($sp)
	lw	$16,28($sp)
	.set	noreorder
	.set	nomacro
	jr	$31
	addiu	$sp,$sp,48
	.set	macro
	.set	reorder

	.cfi_remember_state
	.cfi_def_cfa_offset 0
	.cfi_restore 16
	.cfi_restore 17
	.cfi_restore 18
	.cfi_restore 19
	.cfi_restore 31
$L575:
	.cfi_restore_state
	sync
	sb	$19,4($2)
	sync
	.set	noreorder
	.set	nomacro
	b	$L549
	li	$2,1000			# 0x3e8
	.set	macro
	.set	reorder

$L574:
	sync
	lw	$5,0($2)
	sw	$5,4($2)
	sync
	.set	noreorder
	.set	nomacro
	.set	noat
	sync
1:
	ll	$1,0($4)
	addiu	$1,$1,1
	sc	$1,0($4)
	beq	$1,$0,1b
	nop
	sync
	.set	at
	.set	macro
	.set	reorder
	.set	noreorder
	.set	nomacro
	b	$L579
	lw	$2,4($17)
	.set	macro
	.set	reorder

$L576:
	sync
	lw	$5,0($2)
	sw	$5,4($2)
	sync
	.set	noreorder
	.set	nomacro
	.set	noat
	sync
1:
	ll	$1,0($4)
	addiu	$1,$1,1
	sc	$1,0($4)
	beq	$1,$0,1b
	nop
	sync
	.set	at
	.set	macro
	.set	reorder
	.set	noreorder
	.set	nomacro
	b	$L580
	lw	$16,12($17)
	.set	macro
	.set	reorder

$L577:
	.set	noreorder
	.set	nomacro
	.set	noat
	sync
1:
	ll	$1,16($16)
	addiu	$1,$1,1
	sc	$1,16($16)
	beq	$1,$0,1b
	nop
	sync
	.set	at
	.set	macro
	.set	reorder
	sync
	sb	$0,4($16)
	sync
	.set	noreorder
	.set	nomacro
	b	$L581
	lw	$2,12($17)
	.set	macro
	.set	reorder

$L573:
	.cfi_def_cfa_offset 0
	.cfi_restore 16
	.cfi_restore 17
	.cfi_restore 18
	.cfi_restore 19
	.cfi_restore 31
	sync
	lw	$3,0($2)
	sw	$3,4($2)
	sync
	.set	noreorder
	.set	nomacro
	.set	noat
	sync
1:
	ll	$1,0($5)
	addiu	$1,$1,1
	sc	$1,0($5)
	beq	$1,$0,1b
	nop
	sync
	.set	at
	.set	macro
	.set	reorder
	lw	$2,12($4)
	lw	$2,8($2)
	bgtz	$2,$L578
$L582:
	jr	$31
	.end	_ZNSt6thread11_State_implINS_8_InvokerISt5tupleIJZZN8TestCase7runImplIJZN13SpinUseSeqCst3runEvEUlvE_ZNS5_3runEvEUlvE0_EEE10TestResultDpT_ENKUlT_E_clIS7_EEDaSB_EUlvE_EEEEE6_M_runEv
	.cfi_endproc
$LFE7211:
	.size	_ZNSt6thread11_State_implINS_8_InvokerISt5tupleIJZZN8TestCase7runImplIJZN13SpinUseSeqCst3runEvEUlvE_ZNS5_3runEvEUlvE0_EEE10TestResultDpT_ENKUlT_E_clIS7_EEDaSB_EUlvE_EEEEE6_M_runEv, .-_ZNSt6thread11_State_implINS_8_InvokerISt5tupleIJZZN8TestCase7runImplIJZN13SpinUseSeqCst3runEvEUlvE_ZNS5_3runEvEUlvE0_EEE10TestResultDpT_ENKUlT_E_clIS7_EEDaSB_EUlvE_EEEEE6_M_runEv
	.section	.text._ZNSt6thread11_State_implINS_8_InvokerISt5tupleIJZZN8TestCase7runImplIJZN13SpinUseSeqCst3runEvEUlvE_ZNS5_3runEvEUlvE0_EEE10TestResultDpT_ENKUlT_E_clIS6_EEDaSB_EUlvE_EEEEE6_M_runEv,"axG",@progbits,_ZNSt6thread11_State_implINS_8_InvokerISt5tupleIJZZN8TestCase7runImplIJZN13SpinUseSeqCst3runEvEUlvE_ZNS5_3runEvEUlvE0_EEE10TestResultDpT_ENKUlT_E_clIS6_EEDaSB_EUlvE_EEEEE6_M_runEv,comdat
	.align	2
	.weak	_ZNSt6thread11_State_implINS_8_InvokerISt5tupleIJZZN8TestCase7runImplIJZN13SpinUseSeqCst3runEvEUlvE_ZNS5_3runEvEUlvE0_EEE10TestResultDpT_ENKUlT_E_clIS6_EEDaSB_EUlvE_EEEEE6_M_runEv
$LFB7212 = .
	.cfi_startproc
	.set	nomips16
	.set	nomicromips
	.ent	_ZNSt6thread11_State_implINS_8_InvokerISt5tupleIJZZN8TestCase7runImplIJZN13SpinUseSeqCst3runEvEUlvE_ZNS5_3runEvEUlvE0_EEE10TestResultDpT_ENKUlT_E_clIS6_EEDaSB_EUlvE_EEEEE6_M_runEv
	.type	_ZNSt6thread11_State_implINS_8_InvokerISt5tupleIJZZN8TestCase7runImplIJZN13SpinUseSeqCst3runEvEUlvE_ZNS5_3runEvEUlvE0_EEE10TestResultDpT_ENKUlT_E_clIS6_EEDaSB_EUlvE_EEEEE6_M_runEv, @function
_ZNSt6thread11_State_implINS_8_InvokerISt5tupleIJZZN8TestCase7runImplIJZN13SpinUseSeqCst3runEvEUlvE_ZNS5_3runEvEUlvE0_EEE10TestResultDpT_ENKUlT_E_clIS6_EEDaSB_EUlvE_EEEEE6_M_runEv:
	.frame	$sp,48,$31		# vars= 0, regs= 5/0, args= 16, gp= 8
	.mask	0x800f0000,-4
	.fmask	0x00000000,0
	lw	$2,8($4)
	sync
	addiu	$5,$2,8
	lw	$7,8($2)
	addiu	$3,$2,4
	sync
	.set	noreorder
	.set	nomacro
	.set	noat
	sync
1:
	ll	$6,0($3)
	addiu	$1,$6,-1
	sc	$1,0($3)
	beq	$1,$0,1b
	addiu	$6,$6,-1
	sync
	.set	at
	.set	macro
	.set	reorder
	beq	$6,$0,$L612
$L584:
	sync
	lw	$2,0($5)
	sync
	beq	$7,$2,$L584
	lw	$2,12($4)
	lw	$2,8($2)
	blez	$2,$L620
$L616:
	addiu	$sp,$sp,-48
	.cfi_def_cfa_offset 48
	move	$3,$0
	sw	$19,40($sp)
	sw	$17,32($sp)
	sw	$31,44($sp)
	sw	$18,36($sp)
	sw	$16,28($sp)
	.cfi_offset 19, -8
	.cfi_offset 17, -16
	.cfi_offset 31, -4
	.cfi_offset 18, -12
	.cfi_offset 16, -20
	move	$17,$4
	li	$19,1			# 0x1
$L586:
	lw	$2,16($17)
	sync
	addiu	$4,$2,8
